
========================================================================

** ELF Header Information

    File Name: D:\fpga\AC201-SA5Z50-CM33\TEST1\CM33\Objects\CM33.axf

    Machine class: ELFCLASS32 (32-bit)
    Data encoding: ELFDATA2LSB (Little endian)
    Header version: EV_CURRENT (Current version)
    Operating System ABI: none
    ABI Version: 0
    File Type: ET_EXEC (Executable) (2)
    Machine: EM_ARM (ARM)

    Image Entry point: 0x0000089d
    Flags: EF_ARM_HASENTRY + EF_ARM_ABI_FLOAT_HARD (0x05000402)

    ARM ELF revision: 5 (ABI version 2)

    Conforms to Hard float procedure-call standard

    Built with
    Component: ARM Compiler 6.16 Tool: armasm [5dfea300]
    Component: ARM Compiler 6.16 Tool: armlink [5dfeaa00]

    Header size: 52 bytes (0x34)
    Program header entry size: 32 bytes (0x20)
    Section header entry size: 40 bytes (0x28)

    Program header entries: 1
    Section header entries: 16

    Program header offset: 92048 (0x00016790)
    Section header offset: 92080 (0x000167b0)

    Section header string table index: 15

========================================================================

** Program header #0 (PT_LOAD) [PF_X + PF_W + PF_R + PF_ARM_ENTRY]
    Size : 16072 bytes (11600 bytes in file)
    Virtual address: 0x00000000 (Alignment 8)


========================================================================

** Section #1 'ER_IROM1' (SHT_PROGBITS) [SHF_ALLOC + SHF_EXECINSTR]
    Size   : 11576 bytes (alignment 4)
    Address: 0x00000000

    $d.realdata
    RESET
    __Vectors
        0x00000000:    20001190    ...     DCD    536875408
        0x00000004:    00000955    U...    DCD    2389
        0x00000008:    00000965    e...    DCD    2405
        0x0000000c:    00000963    c...    DCD    2403
        0x00000010:    00000967    g...    DCD    2407
        0x00000014:    00000969    i...    DCD    2409
        0x00000018:    0000096b    k...    DCD    2411
        0x0000001c:    0000096d    m...    DCD    2413
        0x00000020:    00000000    ....    DCD    0
        0x00000024:    00000000    ....    DCD    0
        0x00000028:    00000000    ....    DCD    0
        0x0000002c:    0000096f    o...    DCD    2415
        0x00000030:    00000971    q...    DCD    2417
        0x00000034:    00000000    ....    DCD    0
        0x00000038:    00000973    s...    DCD    2419
        0x0000003c:    00001f21    !...    DCD    7969
        0x00000040:    00000977    w...    DCD    2423
        0x00000044:    00000979    y...    DCD    2425
        0x00000048:    0000097b    {...    DCD    2427
        0x0000004c:    0000097d    }...    DCD    2429
        0x00000050:    0000097f    ....    DCD    2431
        0x00000054:    00000981    ....    DCD    2433
        0x00000058:    00000983    ....    DCD    2435
        0x0000005c:    00000985    ....    DCD    2437
        0x00000060:    00000987    ....    DCD    2439
        0x00000064:    00000989    ....    DCD    2441
        0x00000068:    0000098b    ....    DCD    2443
        0x0000006c:    0000098d    ....    DCD    2445
        0x00000070:    0000098f    ....    DCD    2447
        0x00000074:    00000a11    ....    DCD    2577
        0x00000078:    00000a13    ....    DCD    2579
        0x0000007c:    00000a15    ....    DCD    2581
        0x00000080:    00000997    ....    DCD    2455
        0x00000084:    00000999    ....    DCD    2457
        0x00000088:    0000099b    ....    DCD    2459
        0x0000008c:    0000099d    ....    DCD    2461
        0x00000090:    0000099f    ....    DCD    2463
        0x00000094:    000009a1    ....    DCD    2465
        0x00000098:    000009a3    ....    DCD    2467
        0x0000009c:    000009a5    ....    DCD    2469
        0x000000a0:    000009a7    ....    DCD    2471
        0x000000a4:    000009a9    ....    DCD    2473
        0x000000a8:    000009ab    ....    DCD    2475
        0x000000ac:    000009ad    ....    DCD    2477
        0x000000b0:    000009af    ....    DCD    2479
        0x000000b4:    000009b1    ....    DCD    2481
        0x000000b8:    000009b3    ....    DCD    2483
        0x000000bc:    000009b5    ....    DCD    2485
        0x000000c0:    000009b7    ....    DCD    2487
        0x000000c4:    000009b9    ....    DCD    2489
        0x000000c8:    000009bb    ....    DCD    2491
        0x000000cc:    000009bd    ....    DCD    2493
        0x000000d0:    000009bf    ....    DCD    2495
        0x000000d4:    000009c1    ....    DCD    2497
        0x000000d8:    000009c3    ....    DCD    2499
        0x000000dc:    000009c5    ....    DCD    2501
        0x000000e0:    000009c7    ....    DCD    2503
        0x000000e4:    000009c9    ....    DCD    2505
        0x000000e8:    000009cb    ....    DCD    2507
        0x000000ec:    000009cd    ....    DCD    2509
        0x000000f0:    000009cf    ....    DCD    2511
        0x000000f4:    000009d1    ....    DCD    2513
        0x000000f8:    000009d3    ....    DCD    2515
        0x000000fc:    000009d5    ....    DCD    2517
        0x00000100:    000009d7    ....    DCD    2519
        0x00000104:    000009d9    ....    DCD    2521
        0x00000108:    000009db    ....    DCD    2523
        0x0000010c:    000009f7    ....    DCD    2551
        0x00000110:    000009f9    ....    DCD    2553
        0x00000114:    000009fb    ....    DCD    2555
        0x00000118:    000009fd    ....    DCD    2557
        0x0000011c:    000009ff    ....    DCD    2559
        0x00000120:    00000a01    ....    DCD    2561
        0x00000124:    00000a03    ....    DCD    2563
        0x00000128:    00000a05    ....    DCD    2565
        0x0000012c:    00000a07    ....    DCD    2567
        0x00000130:    00000a09    ....    DCD    2569
        0x00000134:    00000a0b    ....    DCD    2571
        0x00000138:    00000a0d    ....    DCD    2573
        0x0000013c:    00000a0f    ....    DCD    2575
        0x00000140:    00000a17    ....    DCD    2583
        0x00000144:    00000000    ....    DCD    0
        0x00000148:    00000000    ....    DCD    0
        0x0000014c:    00000000    ....    DCD    0
        0x00000150:    00000000    ....    DCD    0
        0x00000154:    00000000    ....    DCD    0
        0x00000158:    00000000    ....    DCD    0
        0x0000015c:    00000000    ....    DCD    0
        0x00000160:    00000000    ....    DCD    0
        0x00000164:    00000000    ....    DCD    0
        0x00000168:    00000000    ....    DCD    0
        0x0000016c:    00000000    ....    DCD    0
        0x00000170:    00000000    ....    DCD    0
        0x00000174:    00000000    ....    DCD    0
        0x00000178:    00000000    ....    DCD    0
        0x0000017c:    00000000    ....    DCD    0
        0x00000180:    00000000    ....    DCD    0
        0x00000184:    00000000    ....    DCD    0
        0x00000188:    00000000    ....    DCD    0
        0x0000018c:    00000000    ....    DCD    0
        0x00000190:    00000000    ....    DCD    0
        0x00000194:    00000000    ....    DCD    0
        0x00000198:    00000000    ....    DCD    0
        0x0000019c:    00000000    ....    DCD    0
        0x000001a0:    00000000    ....    DCD    0
        0x000001a4:    00000000    ....    DCD    0
        0x000001a8:    00000000    ....    DCD    0
        0x000001ac:    00000000    ....    DCD    0
        0x000001b0:    00000000    ....    DCD    0
        0x000001b4:    00000000    ....    DCD    0
        0x000001b8:    00000000    ....    DCD    0
        0x000001bc:    00000000    ....    DCD    0
        0x000001c0:    00000000    ....    DCD    0
        0x000001c4:    00000000    ....    DCD    0
        0x000001c8:    00000000    ....    DCD    0
        0x000001cc:    00000000    ....    DCD    0
        0x000001d0:    00000000    ....    DCD    0
        0x000001d4:    00000000    ....    DCD    0
        0x000001d8:    00000000    ....    DCD    0
        0x000001dc:    00000000    ....    DCD    0
        0x000001e0:    00000000    ....    DCD    0
        0x000001e4:    00000000    ....    DCD    0
        0x000001e8:    00000000    ....    DCD    0
        0x000001ec:    00000000    ....    DCD    0
        0x000001f0:    00000000    ....    DCD    0
        0x000001f4:    00000000    ....    DCD    0
        0x000001f8:    00000000    ....    DCD    0
        0x000001fc:    00000000    ....    DCD    0
        0x00000200:    00000000    ....    DCD    0
        0x00000204:    00000000    ....    DCD    0
        0x00000208:    00000000    ....    DCD    0
        0x0000020c:    00000000    ....    DCD    0
        0x00000210:    00000000    ....    DCD    0
        0x00000214:    00000000    ....    DCD    0
        0x00000218:    00000000    ....    DCD    0
        0x0000021c:    00000000    ....    DCD    0
        0x00000220:    00000000    ....    DCD    0
        0x00000224:    00000000    ....    DCD    0
        0x00000228:    00000000    ....    DCD    0
        0x0000022c:    00000000    ....    DCD    0
        0x00000230:    00000000    ....    DCD    0
        0x00000234:    00000000    ....    DCD    0
        0x00000238:    00000000    ....    DCD    0
        0x0000023c:    00000000    ....    DCD    0
        0x00000240:    00000000    ....    DCD    0
        0x00000244:    00000000    ....    DCD    0
        0x00000248:    00000000    ....    DCD    0
        0x0000024c:    00000000    ....    DCD    0
        0x00000250:    00000000    ....    DCD    0
        0x00000254:    00000000    ....    DCD    0
        0x00000258:    00000000    ....    DCD    0
        0x0000025c:    00000000    ....    DCD    0
        0x00000260:    00000000    ....    DCD    0
        0x00000264:    00000000    ....    DCD    0
        0x00000268:    00000000    ....    DCD    0
        0x0000026c:    00000000    ....    DCD    0
        0x00000270:    00000000    ....    DCD    0
        0x00000274:    00000000    ....    DCD    0
        0x00000278:    00000000    ....    DCD    0
        0x0000027c:    00000000    ....    DCD    0
        0x00000280:    00000000    ....    DCD    0
        0x00000284:    00000000    ....    DCD    0
        0x00000288:    00000000    ....    DCD    0
        0x0000028c:    00000000    ....    DCD    0
        0x00000290:    00000000    ....    DCD    0
        0x00000294:    00000000    ....    DCD    0
        0x00000298:    00000000    ....    DCD    0
        0x0000029c:    00000000    ....    DCD    0
        0x000002a0:    00000000    ....    DCD    0
        0x000002a4:    00000000    ....    DCD    0
        0x000002a8:    00000000    ....    DCD    0
        0x000002ac:    00000000    ....    DCD    0
        0x000002b0:    00000000    ....    DCD    0
        0x000002b4:    00000000    ....    DCD    0
        0x000002b8:    00000000    ....    DCD    0
        0x000002bc:    00000000    ....    DCD    0
        0x000002c0:    00000000    ....    DCD    0
        0x000002c4:    00000000    ....    DCD    0
        0x000002c8:    00000000    ....    DCD    0
        0x000002cc:    00000000    ....    DCD    0
        0x000002d0:    00000000    ....    DCD    0
        0x000002d4:    00000000    ....    DCD    0
        0x000002d8:    00000000    ....    DCD    0
        0x000002dc:    00000000    ....    DCD    0
        0x000002e0:    00000000    ....    DCD    0
        0x000002e4:    00000000    ....    DCD    0
        0x000002e8:    00000000    ....    DCD    0
        0x000002ec:    00000000    ....    DCD    0
        0x000002f0:    00000000    ....    DCD    0
        0x000002f4:    00000000    ....    DCD    0
        0x000002f8:    00000000    ....    DCD    0
        0x000002fc:    00000000    ....    DCD    0
        0x00000300:    00000000    ....    DCD    0
        0x00000304:    00000000    ....    DCD    0
        0x00000308:    00000000    ....    DCD    0
        0x0000030c:    00000000    ....    DCD    0
        0x00000310:    00000000    ....    DCD    0
        0x00000314:    00000000    ....    DCD    0
        0x00000318:    00000000    ....    DCD    0
        0x0000031c:    00000000    ....    DCD    0
        0x00000320:    00000000    ....    DCD    0
        0x00000324:    00000000    ....    DCD    0
        0x00000328:    00000000    ....    DCD    0
        0x0000032c:    00000000    ....    DCD    0
        0x00000330:    00000000    ....    DCD    0
        0x00000334:    00000000    ....    DCD    0
        0x00000338:    00000000    ....    DCD    0
        0x0000033c:    00000000    ....    DCD    0
        0x00000340:    00000000    ....    DCD    0
        0x00000344:    00000000    ....    DCD    0
        0x00000348:    00000000    ....    DCD    0
        0x0000034c:    00000000    ....    DCD    0
        0x00000350:    00000000    ....    DCD    0
        0x00000354:    00000000    ....    DCD    0
        0x00000358:    00000000    ....    DCD    0
        0x0000035c:    00000000    ....    DCD    0
        0x00000360:    00000000    ....    DCD    0
        0x00000364:    00000000    ....    DCD    0
        0x00000368:    00000000    ....    DCD    0
        0x0000036c:    00000000    ....    DCD    0
        0x00000370:    00000000    ....    DCD    0
        0x00000374:    00000000    ....    DCD    0
        0x00000378:    00000000    ....    DCD    0
        0x0000037c:    00000000    ....    DCD    0
        0x00000380:    00000000    ....    DCD    0
        0x00000384:    00000000    ....    DCD    0
        0x00000388:    00000000    ....    DCD    0
        0x0000038c:    00000000    ....    DCD    0
        0x00000390:    00000000    ....    DCD    0
        0x00000394:    00000000    ....    DCD    0
        0x00000398:    00000000    ....    DCD    0
        0x0000039c:    00000000    ....    DCD    0
        0x000003a0:    00000000    ....    DCD    0
        0x000003a4:    00000000    ....    DCD    0
        0x000003a8:    00000000    ....    DCD    0
        0x000003ac:    00000000    ....    DCD    0
        0x000003b0:    00000000    ....    DCD    0
        0x000003b4:    00000000    ....    DCD    0
        0x000003b8:    00000000    ....    DCD    0
        0x000003bc:    00000000    ....    DCD    0
        0x000003c0:    00000000    ....    DCD    0
        0x000003c4:    00000000    ....    DCD    0
        0x000003c8:    00000000    ....    DCD    0
        0x000003cc:    00000000    ....    DCD    0
        0x000003d0:    00000000    ....    DCD    0
        0x000003d4:    00000000    ....    DCD    0
        0x000003d8:    00000000    ....    DCD    0
        0x000003dc:    00000000    ....    DCD    0
        0x000003e0:    00000000    ....    DCD    0
        0x000003e4:    00000000    ....    DCD    0
        0x000003e8:    00000000    ....    DCD    0
        0x000003ec:    00000000    ....    DCD    0
        0x000003f0:    00000000    ....    DCD    0
        0x000003f4:    00000000    ....    DCD    0
        0x000003f8:    00000000    ....    DCD    0
        0x000003fc:    00000000    ....    DCD    0
        0x00000400:    00000000    ....    DCD    0
        0x00000404:    00000000    ....    DCD    0
        0x00000408:    00000000    ....    DCD    0
        0x0000040c:    00000000    ....    DCD    0
        0x00000410:    00000000    ....    DCD    0
        0x00000414:    00000000    ....    DCD    0
        0x00000418:    00000000    ....    DCD    0
        0x0000041c:    00000000    ....    DCD    0
        0x00000420:    00000000    ....    DCD    0
        0x00000424:    00000000    ....    DCD    0
        0x00000428:    00000000    ....    DCD    0
        0x0000042c:    00000000    ....    DCD    0
        0x00000430:    00000000    ....    DCD    0
        0x00000434:    00000000    ....    DCD    0
        0x00000438:    00000000    ....    DCD    0
        0x0000043c:    00000000    ....    DCD    0
        0x00000440:    00000000    ....    DCD    0
        0x00000444:    00000000    ....    DCD    0
        0x00000448:    00000000    ....    DCD    0
        0x0000044c:    00000000    ....    DCD    0
        0x00000450:    00000000    ....    DCD    0
        0x00000454:    00000000    ....    DCD    0
        0x00000458:    00000000    ....    DCD    0
        0x0000045c:    00000000    ....    DCD    0
        0x00000460:    00000000    ....    DCD    0
        0x00000464:    00000000    ....    DCD    0
        0x00000468:    00000000    ....    DCD    0
        0x0000046c:    00000000    ....    DCD    0
        0x00000470:    00000000    ....    DCD    0
        0x00000474:    00000000    ....    DCD    0
        0x00000478:    00000000    ....    DCD    0
        0x0000047c:    00000000    ....    DCD    0
        0x00000480:    00000000    ....    DCD    0
        0x00000484:    00000000    ....    DCD    0
        0x00000488:    00000000    ....    DCD    0
        0x0000048c:    00000000    ....    DCD    0
        0x00000490:    00000000    ....    DCD    0
        0x00000494:    00000000    ....    DCD    0
        0x00000498:    00000000    ....    DCD    0
        0x0000049c:    00000000    ....    DCD    0
        0x000004a0:    00000000    ....    DCD    0
        0x000004a4:    00000000    ....    DCD    0
        0x000004a8:    00000000    ....    DCD    0
        0x000004ac:    00000000    ....    DCD    0
        0x000004b0:    00000000    ....    DCD    0
        0x000004b4:    00000000    ....    DCD    0
        0x000004b8:    00000000    ....    DCD    0
        0x000004bc:    00000000    ....    DCD    0
        0x000004c0:    00000000    ....    DCD    0
        0x000004c4:    00000000    ....    DCD    0
        0x000004c8:    00000000    ....    DCD    0
        0x000004cc:    00000000    ....    DCD    0
        0x000004d0:    00000000    ....    DCD    0
        0x000004d4:    00000000    ....    DCD    0
        0x000004d8:    00000000    ....    DCD    0
        0x000004dc:    00000000    ....    DCD    0
        0x000004e0:    00000000    ....    DCD    0
        0x000004e4:    00000000    ....    DCD    0
        0x000004e8:    00000000    ....    DCD    0
        0x000004ec:    00000000    ....    DCD    0
        0x000004f0:    00000000    ....    DCD    0
        0x000004f4:    00000000    ....    DCD    0
        0x000004f8:    00000000    ....    DCD    0
        0x000004fc:    00000000    ....    DCD    0
        0x00000500:    00000000    ....    DCD    0
        0x00000504:    00000000    ....    DCD    0
        0x00000508:    00000000    ....    DCD    0
        0x0000050c:    00000000    ....    DCD    0
        0x00000510:    00000000    ....    DCD    0
        0x00000514:    00000000    ....    DCD    0
        0x00000518:    00000000    ....    DCD    0
        0x0000051c:    00000000    ....    DCD    0
        0x00000520:    00000000    ....    DCD    0
        0x00000524:    00000000    ....    DCD    0
        0x00000528:    00000000    ....    DCD    0
        0x0000052c:    00000000    ....    DCD    0
        0x00000530:    00000000    ....    DCD    0
        0x00000534:    00000000    ....    DCD    0
        0x00000538:    00000000    ....    DCD    0
        0x0000053c:    00000000    ....    DCD    0
        0x00000540:    00000000    ....    DCD    0
        0x00000544:    00000000    ....    DCD    0
        0x00000548:    00000000    ....    DCD    0
        0x0000054c:    00000000    ....    DCD    0
        0x00000550:    00000000    ....    DCD    0
        0x00000554:    00000000    ....    DCD    0
        0x00000558:    00000000    ....    DCD    0
        0x0000055c:    00000000    ....    DCD    0
        0x00000560:    00000000    ....    DCD    0
        0x00000564:    00000000    ....    DCD    0
        0x00000568:    00000000    ....    DCD    0
        0x0000056c:    00000000    ....    DCD    0
        0x00000570:    00000000    ....    DCD    0
        0x00000574:    00000000    ....    DCD    0
        0x00000578:    00000000    ....    DCD    0
        0x0000057c:    00000000    ....    DCD    0
        0x00000580:    00000000    ....    DCD    0
        0x00000584:    00000000    ....    DCD    0
        0x00000588:    00000000    ....    DCD    0
        0x0000058c:    00000000    ....    DCD    0
        0x00000590:    00000000    ....    DCD    0
        0x00000594:    00000000    ....    DCD    0
        0x00000598:    00000000    ....    DCD    0
        0x0000059c:    00000000    ....    DCD    0
        0x000005a0:    00000000    ....    DCD    0
        0x000005a4:    00000000    ....    DCD    0
        0x000005a8:    00000000    ....    DCD    0
        0x000005ac:    00000000    ....    DCD    0
        0x000005b0:    00000000    ....    DCD    0
        0x000005b4:    00000000    ....    DCD    0
        0x000005b8:    00000000    ....    DCD    0
        0x000005bc:    00000000    ....    DCD    0
        0x000005c0:    00000000    ....    DCD    0
        0x000005c4:    00000000    ....    DCD    0
        0x000005c8:    00000000    ....    DCD    0
        0x000005cc:    00000000    ....    DCD    0
        0x000005d0:    00000000    ....    DCD    0
        0x000005d4:    00000000    ....    DCD    0
        0x000005d8:    00000000    ....    DCD    0
        0x000005dc:    00000000    ....    DCD    0
        0x000005e0:    00000000    ....    DCD    0
        0x000005e4:    00000000    ....    DCD    0
        0x000005e8:    00000000    ....    DCD    0
        0x000005ec:    00000000    ....    DCD    0
        0x000005f0:    00000000    ....    DCD    0
        0x000005f4:    00000000    ....    DCD    0
        0x000005f8:    00000000    ....    DCD    0
        0x000005fc:    00000000    ....    DCD    0
        0x00000600:    00000000    ....    DCD    0
        0x00000604:    00000000    ....    DCD    0
        0x00000608:    00000000    ....    DCD    0
        0x0000060c:    00000000    ....    DCD    0
        0x00000610:    00000000    ....    DCD    0
        0x00000614:    00000000    ....    DCD    0
        0x00000618:    00000000    ....    DCD    0
        0x0000061c:    00000000    ....    DCD    0
        0x00000620:    00000000    ....    DCD    0
        0x00000624:    00000000    ....    DCD    0
        0x00000628:    00000000    ....    DCD    0
        0x0000062c:    00000000    ....    DCD    0
        0x00000630:    00000000    ....    DCD    0
        0x00000634:    00000000    ....    DCD    0
        0x00000638:    00000000    ....    DCD    0
        0x0000063c:    00000000    ....    DCD    0
        0x00000640:    00000000    ....    DCD    0
        0x00000644:    00000000    ....    DCD    0
        0x00000648:    00000000    ....    DCD    0
        0x0000064c:    00000000    ....    DCD    0
        0x00000650:    00000000    ....    DCD    0
        0x00000654:    00000000    ....    DCD    0
        0x00000658:    00000000    ....    DCD    0
        0x0000065c:    00000000    ....    DCD    0
        0x00000660:    00000000    ....    DCD    0
        0x00000664:    00000000    ....    DCD    0
        0x00000668:    00000000    ....    DCD    0
        0x0000066c:    00000000    ....    DCD    0
        0x00000670:    00000000    ....    DCD    0
        0x00000674:    00000000    ....    DCD    0
        0x00000678:    00000000    ....    DCD    0
        0x0000067c:    00000000    ....    DCD    0
        0x00000680:    00000000    ....    DCD    0
        0x00000684:    00000000    ....    DCD    0
        0x00000688:    00000000    ....    DCD    0
        0x0000068c:    00000000    ....    DCD    0
        0x00000690:    00000000    ....    DCD    0
        0x00000694:    00000000    ....    DCD    0
        0x00000698:    00000000    ....    DCD    0
        0x0000069c:    00000000    ....    DCD    0
        0x000006a0:    00000000    ....    DCD    0
        0x000006a4:    00000000    ....    DCD    0
        0x000006a8:    00000000    ....    DCD    0
        0x000006ac:    00000000    ....    DCD    0
        0x000006b0:    00000000    ....    DCD    0
        0x000006b4:    00000000    ....    DCD    0
        0x000006b8:    00000000    ....    DCD    0
        0x000006bc:    00000000    ....    DCD    0
        0x000006c0:    00000000    ....    DCD    0
        0x000006c4:    00000000    ....    DCD    0
        0x000006c8:    00000000    ....    DCD    0
        0x000006cc:    00000000    ....    DCD    0
        0x000006d0:    00000000    ....    DCD    0
        0x000006d4:    00000000    ....    DCD    0
        0x000006d8:    00000000    ....    DCD    0
        0x000006dc:    00000000    ....    DCD    0
        0x000006e0:    00000000    ....    DCD    0
        0x000006e4:    00000000    ....    DCD    0
        0x000006e8:    00000000    ....    DCD    0
        0x000006ec:    00000000    ....    DCD    0
        0x000006f0:    00000000    ....    DCD    0
        0x000006f4:    00000000    ....    DCD    0
        0x000006f8:    00000000    ....    DCD    0
        0x000006fc:    00000000    ....    DCD    0
        0x00000700:    00000000    ....    DCD    0
        0x00000704:    00000000    ....    DCD    0
        0x00000708:    00000000    ....    DCD    0
        0x0000070c:    00000000    ....    DCD    0
        0x00000710:    00000000    ....    DCD    0
        0x00000714:    00000000    ....    DCD    0
        0x00000718:    00000000    ....    DCD    0
        0x0000071c:    00000000    ....    DCD    0
        0x00000720:    00000000    ....    DCD    0
        0x00000724:    00000000    ....    DCD    0
        0x00000728:    00000000    ....    DCD    0
        0x0000072c:    00000000    ....    DCD    0
        0x00000730:    00000000    ....    DCD    0
        0x00000734:    00000000    ....    DCD    0
        0x00000738:    00000000    ....    DCD    0
        0x0000073c:    00000000    ....    DCD    0
        0x00000740:    00000000    ....    DCD    0
        0x00000744:    00000000    ....    DCD    0
        0x00000748:    00000000    ....    DCD    0
        0x0000074c:    00000000    ....    DCD    0
        0x00000750:    00000000    ....    DCD    0
        0x00000754:    00000000    ....    DCD    0
        0x00000758:    00000000    ....    DCD    0
        0x0000075c:    00000000    ....    DCD    0
        0x00000760:    00000000    ....    DCD    0
        0x00000764:    00000000    ....    DCD    0
        0x00000768:    00000000    ....    DCD    0
        0x0000076c:    00000000    ....    DCD    0
        0x00000770:    00000000    ....    DCD    0
        0x00000774:    00000000    ....    DCD    0
        0x00000778:    00000000    ....    DCD    0
        0x0000077c:    00000000    ....    DCD    0
        0x00000780:    00000000    ....    DCD    0
        0x00000784:    00000000    ....    DCD    0
        0x00000788:    00000000    ....    DCD    0
        0x0000078c:    00000000    ....    DCD    0
        0x00000790:    00000000    ....    DCD    0
        0x00000794:    00000000    ....    DCD    0
        0x00000798:    00000000    ....    DCD    0
        0x0000079c:    00000000    ....    DCD    0
        0x000007a0:    00000000    ....    DCD    0
        0x000007a4:    00000000    ....    DCD    0
        0x000007a8:    00000000    ....    DCD    0
        0x000007ac:    00000000    ....    DCD    0
        0x000007b0:    00000000    ....    DCD    0
        0x000007b4:    00000000    ....    DCD    0
        0x000007b8:    00000000    ....    DCD    0
        0x000007bc:    00000000    ....    DCD    0
        0x000007c0:    00000000    ....    DCD    0
        0x000007c4:    00000000    ....    DCD    0
        0x000007c8:    00000000    ....    DCD    0
        0x000007cc:    00000000    ....    DCD    0
        0x000007d0:    00000000    ....    DCD    0
        0x000007d4:    00000000    ....    DCD    0
        0x000007d8:    00000000    ....    DCD    0
        0x000007dc:    00000000    ....    DCD    0
        0x000007e0:    00000000    ....    DCD    0
        0x000007e4:    00000000    ....    DCD    0
        0x000007e8:    00000000    ....    DCD    0
        0x000007ec:    00000000    ....    DCD    0
        0x000007f0:    00000000    ....    DCD    0
        0x000007f4:    00000000    ....    DCD    0
        0x000007f8:    00000000    ....    DCD    0
        0x000007fc:    00000000    ....    DCD    0
        0x00000800:    00000000    ....    DCD    0
        0x00000804:    00000000    ....    DCD    0
        0x00000808:    00000000    ....    DCD    0
        0x0000080c:    00000000    ....    DCD    0
        0x00000810:    00000000    ....    DCD    0
        0x00000814:    00000000    ....    DCD    0
        0x00000818:    00000000    ....    DCD    0
        0x0000081c:    00000000    ....    DCD    0
        0x00000820:    00000000    ....    DCD    0
        0x00000824:    00000000    ....    DCD    0
        0x00000828:    00000000    ....    DCD    0
        0x0000082c:    00000000    ....    DCD    0
        0x00000830:    00000000    ....    DCD    0
        0x00000834:    00000000    ....    DCD    0
        0x00000838:    00000000    ....    DCD    0
        0x0000083c:    00000000    ....    DCD    0
        0x00000840:    00000000    ....    DCD    0
        0x00000844:    00000000    ....    DCD    0
        0x00000848:    00000000    ....    DCD    0
        0x0000084c:    00000000    ....    DCD    0
        0x00000850:    00000000    ....    DCD    0
        0x00000854:    00000000    ....    DCD    0
        0x00000858:    00000000    ....    DCD    0
        0x0000085c:    00000000    ....    DCD    0
        0x00000860:    00000000    ....    DCD    0
        0x00000864:    00000000    ....    DCD    0
        0x00000868:    00000000    ....    DCD    0
        0x0000086c:    00000000    ....    DCD    0
        0x00000870:    00000000    ....    DCD    0
        0x00000874:    00000000    ....    DCD    0
        0x00000878:    00000000    ....    DCD    0
        0x0000087c:    00000000    ....    DCD    0
        0x00000880:    00000000    ....    DCD    0
        0x00000884:    00000000    ....    DCD    0
        0x00000888:    00000000    ....    DCD    0
        0x0000088c:    00000000    ....    DCD    0
        0x00000890:    00000000    ....    DCD    0
        0x00000894:    00000000    ....    DCD    0
        0x00000898:    00000000    ....    DCD    0
    $t
    !!!main
    __Vectors_End
    __main
        0x0000089c:    f000f802    ....    BL       __scatterload ; 0x8a4
        0x000008a0:    f000f847    ..G.    BL       __rt_entry ; 0x932
    !!!scatter
    __scatterload
    __scatterload_rt2
    __scatterload_rt2_thumb_only
        0x000008a4:    a00a        ..      ADR      r0,{pc}+0x2c ; 0x8d0
        0x000008a6:    e8900c00    ....    LDM      r0,{r10,r11}
        0x000008aa:    4482        .D      ADD      r10,r10,r0
        0x000008ac:    4483        .D      ADD      r11,r11,r0
        0x000008ae:    f1aa0701    ....    SUB      r7,r10,#1
    __scatterload_null
        0x000008b2:    45da        .E      CMP      r10,r11
        0x000008b4:    d101        ..      BNE      0x8ba ; __scatterload_null + 8
        0x000008b6:    f000f83c    ..<.    BL       __rt_entry ; 0x932
        0x000008ba:    f2af0e09    ....    ADR      lr,{pc}-7 ; 0x8b3
        0x000008be:    e8ba000f    ....    LDM      r10!,{r0-r3}
        0x000008c2:    f0130f01    ....    TST      r3,#1
        0x000008c6:    bf18        ..      IT       NE
        0x000008c8:    1afb        ..      SUBNE    r3,r7,r3
        0x000008ca:    f0430301    C...    ORR      r3,r3,#1
        0x000008ce:    4718        .G      BX       r3
    $d
        0x000008d0:    00002448    H$..    DCD    9288
        0x000008d4:    00002468    h$..    DCD    9320
    $t
    !!handler_copy
    __scatterload_copy
        0x000008d8:    3a10        .:      SUBS     r2,r2,#0x10
        0x000008da:    bf24        $.      ITT      CS
        0x000008dc:    c878        x.      LDMCS    r0!,{r3-r6}
        0x000008de:    c178        x.      STMCS    r1!,{r3-r6}
        0x000008e0:    d8fa        ..      BHI      __scatterload_copy ; 0x8d8
        0x000008e2:    0752        R.      LSLS     r2,r2,#29
        0x000008e4:    bf24        $.      ITT      CS
        0x000008e6:    c830        0.      LDMCS    r0!,{r4,r5}
        0x000008e8:    c130        0.      STMCS    r1!,{r4,r5}
        0x000008ea:    bf44        D.      ITT      MI
        0x000008ec:    6804        .h      LDRMI    r4,[r0,#0]
        0x000008ee:    600c        .`      STRMI    r4,[r1,#0]
        0x000008f0:    4770        pG      BX       lr
        0x000008f2:    0000        ..      MOVS     r0,r0
    !!handler_zi
    __scatterload_zeroinit
        0x000008f4:    2300        .#      MOVS     r3,#0
        0x000008f6:    2400        .$      MOVS     r4,#0
        0x000008f8:    2500        .%      MOVS     r5,#0
        0x000008fa:    2600        .&      MOVS     r6,#0
        0x000008fc:    3a10        .:      SUBS     r2,r2,#0x10
        0x000008fe:    bf28        (.      IT       CS
        0x00000900:    c178        x.      STMCS    r1!,{r3-r6}
        0x00000902:    d8fb        ..      BHI      0x8fc ; __scatterload_zeroinit + 8
        0x00000904:    0752        R.      LSLS     r2,r2,#29
        0x00000906:    bf28        (.      IT       CS
        0x00000908:    c130        0.      STMCS    r1!,{r4,r5}
        0x0000090a:    bf48        H.      IT       MI
        0x0000090c:    600b        .`      STRMI    r3,[r1,#0]
        0x0000090e:    4770        pG      BX       lr
    .ARM.Collect$$_printf_percent$$00000009
    .ARM.Collect$$_printf_percent$$00000000
    _printf_d
    _printf_percent
        0x00000910:    2964        d)      CMP      r1,#0x64
        0x00000912:    f00080f1    ....    BEQ.W    _printf_int_dec ; 0xaf8
    .ARM.Collect$$_printf_percent$$0000000C
    _printf_x
        0x00000916:    2978        x)      CMP      r1,#0x78
        0x00000918:    f000812a    ..*.    BEQ.W    _printf_int_hex ; 0xb70
    .ARM.Collect$$_printf_percent$$00000014
    _printf_s
        0x0000091c:    2973        s)      CMP      r1,#0x73
        0x0000091e:    f00081d7    ....    BEQ.W    _printf_string ; 0xcd0
    .ARM.Collect$$_printf_percent$$00000017
    _printf_percent_end
        0x00000922:    2000        .       MOVS     r0,#0
        0x00000924:    4770        pG      BX       lr
    .ARM.Collect$$libinit$$00000000
    __rt_lib_init
        0x00000926:    b51f        ..      PUSH     {r0-r4,lr}
    .ARM.Collect$$libinit$$00000001
    __rt_lib_init_fp_1
        0x00000928:    f001ff95    ....    BL       _fp_init ; 0x2856
    .ARM.Collect$$libinit$$00000004
    .ARM.Collect$$libinit$$0000000A
    .ARM.Collect$$libinit$$0000000C
    .ARM.Collect$$libinit$$0000000E
    .ARM.Collect$$libinit$$00000011
    .ARM.Collect$$libinit$$00000013
    .ARM.Collect$$libinit$$00000015
    .ARM.Collect$$libinit$$00000017
    .ARM.Collect$$libinit$$00000019
    .ARM.Collect$$libinit$$0000001B
    .ARM.Collect$$libinit$$0000001D
    .ARM.Collect$$libinit$$0000001F
    .ARM.Collect$$libinit$$00000021
    .ARM.Collect$$libinit$$00000023
    .ARM.Collect$$libinit$$00000025
    .ARM.Collect$$libinit$$0000002C
    .ARM.Collect$$libinit$$0000002E
    .ARM.Collect$$libinit$$00000030
    .ARM.Collect$$libinit$$00000032
    .ARM.Collect$$libinit$$00000033
    __rt_lib_init_alloca_1
    __rt_lib_init_argv_1
    __rt_lib_init_atexit_1
    __rt_lib_init_clock_1
    __rt_lib_init_cpp_1
    __rt_lib_init_exceptions_1
    __rt_lib_init_fp_trap_1
    __rt_lib_init_getenv_1
    __rt_lib_init_heap_1
    __rt_lib_init_lc_collate_1
    __rt_lib_init_lc_ctype_1
    __rt_lib_init_lc_monetary_1
    __rt_lib_init_lc_numeric_1
    __rt_lib_init_lc_time_1
    __rt_lib_init_preinit_1
    __rt_lib_init_rand_1
    __rt_lib_init_return
    __rt_lib_init_signal_1
    __rt_lib_init_stdio_1
    __rt_lib_init_user_alloc_1
        0x0000092c:    bd1f        ..      POP      {r0-r4,pc}
    .ARM.Collect$$libshutdown$$00000000
    __rt_lib_shutdown
        0x0000092e:    b510        ..      PUSH     {r4,lr}
    .ARM.Collect$$libshutdown$$00000002
    .ARM.Collect$$libshutdown$$00000004
    .ARM.Collect$$libshutdown$$00000007
    .ARM.Collect$$libshutdown$$0000000A
    .ARM.Collect$$libshutdown$$0000000C
    .ARM.Collect$$libshutdown$$0000000F
    .ARM.Collect$$libshutdown$$00000010
    __rt_lib_shutdown_cpp_1
    __rt_lib_shutdown_fp_trap_1
    __rt_lib_shutdown_heap_1
    __rt_lib_shutdown_return
    __rt_lib_shutdown_signal_1
    __rt_lib_shutdown_stdio_1
    __rt_lib_shutdown_user_alloc_1
        0x00000930:    bd10        ..      POP      {r4,pc}
    .ARM.Collect$$rtentry$$00000000
    .ARM.Collect$$rtentry$$00000002
    .ARM.Collect$$rtentry$$00000005
    __rt_entry
    __rt_entry_presh_1
    __rt_entry_sh
        0x00000932:    f8dfd010    ....    LDR      sp,__lit__00000000 ; [0x944] = 0x20001190
    .ARM.Collect$$rtentry$$00000009
    .ARM.Collect$$rtentry$$0000000A
    __rt_entry_li
    __rt_entry_postsh_1
        0x00000936:    f7fffff6    ....    BL       __rt_lib_init ; 0x926
    .ARM.Collect$$rtentry$$0000000C
    .ARM.Collect$$rtentry$$0000000D
    __rt_entry_main
    __rt_entry_postli_1
        0x0000093a:    f001fbd5    ....    BL       main ; 0x20e8
        0x0000093e:    f000f9f9    ....    BL       exit ; 0xd34
        0x00000942:    0000        ..      MOVS     r0,r0
    $d
    .ARM.Collect$$rtentry$$00002716
    __lit__00000000
        0x00000944:    20001190    ...     DCD    536875408
    $t
    .ARM.Collect$$rtexit$$00000000
    __rt_exit
        0x00000948:    b403        ..      PUSH     {r0,r1}
    .ARM.Collect$$rtexit$$00000002
    .ARM.Collect$$rtexit$$00000003
    __rt_exit_ls
    __rt_exit_prels_1
        0x0000094a:    f7fffff0    ....    BL       __rt_lib_shutdown ; 0x92e
    .ARM.Collect$$rtexit$$00000004
    __rt_exit_exit
        0x0000094e:    bc03        ..      POP      {r0,r1}
        0x00000950:    f000f9fa    ....    BL       __semihosting_library_function ; 0xd48
    .text
    $v0
    Reset_Handler
        0x00000954:    4830        0H      LDR      r0,[pc,#192] ; [0xa18] = 0x20000190
        0x00000956:    f380880a    ....    MSR      MSPLIM,r0
        0x0000095a:    4830        0H      LDR      r0,[pc,#192] ; [0xa1c] = 0x1f31
        0x0000095c:    4780        .G      BLX      r0
        0x0000095e:    4830        0H      LDR      r0,[pc,#192] ; [0xa20] = 0x89d
        0x00000960:    4700        .G      BX       r0
    HardFault_Handler
        0x00000962:    e7fe        ..      B        HardFault_Handler ; 0x962
    NMI_Handler
        0x00000964:    e7fe        ..      B        NMI_Handler ; 0x964
    MemManage_Handler
        0x00000966:    e7fe        ..      B        MemManage_Handler ; 0x966
    BusFault_Handler
        0x00000968:    e7fe        ..      B        BusFault_Handler ; 0x968
    UsageFault_Handler
        0x0000096a:    e7fe        ..      B        UsageFault_Handler ; 0x96a
    SecureFault_Handler
        0x0000096c:    e7fe        ..      B        SecureFault_Handler ; 0x96c
    SVC_Handler
        0x0000096e:    e7fe        ..      B        SVC_Handler ; 0x96e
    DebugMon_Handler
        0x00000970:    e7fe        ..      B        DebugMon_Handler ; 0x970
    PendSV_Handler
        0x00000972:    e7fe        ..      B        PendSV_Handler ; 0x972
        0x00000974:    e7fe        ..      B        0x974 ; PendSV_Handler + 2
    UART0_Handler
        0x00000976:    e7fe        ..      B        UART0_Handler ; 0x976
    ADC_Handler
        0x00000978:    e7fe        ..      B        ADC_Handler ; 0x978
    UART1_Handler
        0x0000097a:    e7fe        ..      B        UART1_Handler ; 0x97a
    DMACINTERR_Handler
        0x0000097c:    e7fe        ..      B        DMACINTERR_Handler ; 0x97c
    DMACINTTC_Handler
        0x0000097e:    e7fe        ..      B        DMACINTTC_Handler ; 0x97e
    DMACINTR_Handler
        0x00000980:    e7fe        ..      B        DMACINTR_Handler ; 0x980
    PORT0_COMB_Handler
        0x00000982:    e7fe        ..      B        PORT0_COMB_Handler ; 0x982
    ADC1_Handler
        0x00000984:    e7fe        ..      B        ADC1_Handler ; 0x984
    TIMER0_Handler
        0x00000986:    e7fe        ..      B        TIMER0_Handler ; 0x986
    TIMER1_Handler
        0x00000988:    e7fe        ..      B        TIMER1_Handler ; 0x988
    DUALTIMER0_Handler
        0x0000098a:    e7fe        ..      B        DUALTIMER0_Handler ; 0x98a
    DUALTIMER1_Handler
        0x0000098c:    e7fe        ..      B        DUALTIMER1_Handler ; 0x98c
    UARTOVF_Handler
        0x0000098e:    e7fe        ..      B        UARTOVF_Handler ; 0x98e
    EXT13_IRQn
        0x00000990:    e7fe        ..      B        EXT13_IRQn ; 0x990
    EXT14_IRQn
        0x00000992:    e7fe        ..      B        EXT14_IRQn ; 0x992
    EXT15_IRQn
        0x00000994:    e7fe        ..      B        EXT15_IRQn ; 0x994
    PORT0_0_Handler
        0x00000996:    e7fe        ..      B        PORT0_0_Handler ; 0x996
    PORT0_1_Handler
        0x00000998:    e7fe        ..      B        PORT0_1_Handler ; 0x998
    PORT0_2_Handler
        0x0000099a:    e7fe        ..      B        PORT0_2_Handler ; 0x99a
    PORT0_3_Handler
        0x0000099c:    e7fe        ..      B        PORT0_3_Handler ; 0x99c
    PORT0_4_Handler
        0x0000099e:    e7fe        ..      B        PORT0_4_Handler ; 0x99e
    PORT0_5_Handler
        0x000009a0:    e7fe        ..      B        PORT0_5_Handler ; 0x9a0
    PORT0_6_Handler
        0x000009a2:    e7fe        ..      B        PORT0_6_Handler ; 0x9a2
    PORT0_7_Handler
        0x000009a4:    e7fe        ..      B        PORT0_7_Handler ; 0x9a4
    PORT0_8_Handler
        0x000009a6:    e7fe        ..      B        PORT0_8_Handler ; 0x9a6
    PORT0_9_Handler
        0x000009a8:    e7fe        ..      B        PORT0_9_Handler ; 0x9a8
    PORT0_10_Handler
        0x000009aa:    e7fe        ..      B        PORT0_10_Handler ; 0x9aa
    PORT0_11_Handler
        0x000009ac:    e7fe        ..      B        PORT0_11_Handler ; 0x9ac
    PORT0_12_Handler
        0x000009ae:    e7fe        ..      B        PORT0_12_Handler ; 0x9ae
    PORT0_13_Handler
        0x000009b0:    e7fe        ..      B        PORT0_13_Handler ; 0x9b0
    PORT0_14_Handler
        0x000009b2:    e7fe        ..      B        PORT0_14_Handler ; 0x9b2
    PORT0_15_Handler
        0x000009b4:    e7fe        ..      B        PORT0_15_Handler ; 0x9b4
    PORT0_16_Handler
        0x000009b6:    e7fe        ..      B        PORT0_16_Handler ; 0x9b6
    PORT0_17_Handler
        0x000009b8:    e7fe        ..      B        PORT0_17_Handler ; 0x9b8
    PORT0_18_Handler
        0x000009ba:    e7fe        ..      B        PORT0_18_Handler ; 0x9ba
    PORT0_19_Handler
        0x000009bc:    e7fe        ..      B        PORT0_19_Handler ; 0x9bc
    PORT0_20_Handler
        0x000009be:    e7fe        ..      B        PORT0_20_Handler ; 0x9be
    PORT0_21_Handler
        0x000009c0:    e7fe        ..      B        PORT0_21_Handler ; 0x9c0
    PORT0_22_Handler
        0x000009c2:    e7fe        ..      B        PORT0_22_Handler ; 0x9c2
    PORT0_23_Handler
        0x000009c4:    e7fe        ..      B        PORT0_23_Handler ; 0x9c4
    PORT0_24_Handler
        0x000009c6:    e7fe        ..      B        PORT0_24_Handler ; 0x9c6
    PORT0_25_Handler
        0x000009c8:    e7fe        ..      B        PORT0_25_Handler ; 0x9c8
    PORT0_26_Handler
        0x000009ca:    e7fe        ..      B        PORT0_26_Handler ; 0x9ca
    PORT0_27_Handler
        0x000009cc:    e7fe        ..      B        PORT0_27_Handler ; 0x9cc
    PORT0_28_Handler
        0x000009ce:    e7fe        ..      B        PORT0_28_Handler ; 0x9ce
    PORT0_29_Handler
        0x000009d0:    e7fe        ..      B        PORT0_29_Handler ; 0x9d0
    PORT0_30_Handler
        0x000009d2:    e7fe        ..      B        PORT0_30_Handler ; 0x9d2
    PORT0_31_Handler
        0x000009d4:    e7fe        ..      B        PORT0_31_Handler ; 0x9d4
    I2C_Handler
        0x000009d6:    e7fe        ..      B        I2C_Handler ; 0x9d6
    MPS2_SSP0_Handler
        0x000009d8:    e7fe        ..      B        MPS2_SSP0_Handler ; 0x9d8
    MPS2_SSP1_Handler
        0x000009da:    e7fe        ..      B        MPS2_SSP1_Handler ; 0x9da
    Spare51_Handler
        0x000009dc:    e7fe        ..      B        Spare51_Handler ; 0x9dc
    Spare52_Handler
        0x000009de:    e7fe        ..      B        Spare52_Handler ; 0x9de
    Spare53_Handler
        0x000009e0:    e7fe        ..      B        Spare53_Handler ; 0x9e0
    Spare54_Handler
        0x000009e2:    e7fe        ..      B        Spare54_Handler ; 0x9e2
    Spare55_Handler
        0x000009e4:    e7fe        ..      B        Spare55_Handler ; 0x9e4
    Spare56_Handler
        0x000009e6:    e7fe        ..      B        Spare56_Handler ; 0x9e6
    Spare57_Handler
        0x000009e8:    e7fe        ..      B        Spare57_Handler ; 0x9e8
    Spare58_Handler
        0x000009ea:    e7fe        ..      B        Spare58_Handler ; 0x9ea
    Spare59_Handler
        0x000009ec:    e7fe        ..      B        Spare59_Handler ; 0x9ec
    Spare60_Handler
        0x000009ee:    e7fe        ..      B        Spare60_Handler ; 0x9ee
    Spare61_Handler
        0x000009f0:    e7fe        ..      B        Spare61_Handler ; 0x9f0
    Spare62_Handler
        0x000009f2:    e7fe        ..      B        Spare62_Handler ; 0x9f2
    Spare63_Handler
        0x000009f4:    e7fe        ..      B        Spare63_Handler ; 0x9f4
    EXT0_Handler
        0x000009f6:    e7fe        ..      B        EXT0_Handler ; 0x9f6
    EXT1_Handler
        0x000009f8:    e7fe        ..      B        EXT1_Handler ; 0x9f8
    EXT2_Handler
        0x000009fa:    e7fe        ..      B        EXT2_Handler ; 0x9fa
    EXT3_Handler
        0x000009fc:    e7fe        ..      B        EXT3_Handler ; 0x9fc
    EXT4_Handler
        0x000009fe:    e7fe        ..      B        EXT4_Handler ; 0x9fe
    EXT5_Handler
        0x00000a00:    e7fe        ..      B        EXT5_Handler ; 0xa00
    EXT6_Handler
        0x00000a02:    e7fe        ..      B        EXT6_Handler ; 0xa02
    EXT7_Handler
        0x00000a04:    e7fe        ..      B        EXT7_Handler ; 0xa04
    EXT8_Handler
        0x00000a06:    e7fe        ..      B        EXT8_Handler ; 0xa06
    EXT9_Handler
        0x00000a08:    e7fe        ..      B        EXT9_Handler ; 0xa08
    EXT10_Handler
        0x00000a0a:    e7fe        ..      B        EXT10_Handler ; 0xa0a
    EXT11_Handler
        0x00000a0c:    e7fe        ..      B        EXT11_Handler ; 0xa0c
    EXT12_Handler
        0x00000a0e:    e7fe        ..      B        EXT12_Handler ; 0xa0e
    EXT13_Handler
        0x00000a10:    e7fe        ..      B        EXT13_Handler ; 0xa10
    EXT14_Handler
        0x00000a12:    e7fe        ..      B        EXT14_Handler ; 0xa12
    EXT15_Handler
        0x00000a14:    e7fe        ..      B        EXT15_Handler ; 0xa14
    UART2_Handler
        0x00000a16:    e7fe        ..      B        UART2_Handler ; 0xa16
    $d
        0x00000a18:    20000190    ...     DCD    536871312
        0x00000a1c:    00001f31    1...    DCD    7985
        0x00000a20:    0000089d    ....    DCD    2205
    $t
    .text
    __2printf
        0x00000a24:    b40f        ..      PUSH     {r0-r3}
        0x00000a26:    4904        .I      LDR      r1,[pc,#16] ; [0xa38] = 0x2000001c
        0x00000a28:    b510        ..      PUSH     {r4,lr}
        0x00000a2a:    aa03        ..      ADD      r2,sp,#0xc
        0x00000a2c:    9802        ..      LDR      r0,[sp,#8]
        0x00000a2e:    f000f953    ..S.    BL       _printf_char_file ; 0xcd8
        0x00000a32:    bc10        ..      POP      {r4}
        0x00000a34:    f85dfb14    ]...    LDR      pc,[sp],#0x14
    $d
        0x00000a38:    2000001c    ...     DCD    536870940
    $t
    .text
    __printf
        0x00000a3c:    e92d41f0    -..A    PUSH     {r4-r8,lr}
        0x00000a40:    460e        .F      MOV      r6,r1
        0x00000a42:    4604        .F      MOV      r4,r0
        0x00000a44:    2000        .       MOVS     r0,#0
        0x00000a46:    6220         b      STR      r0,[r4,#0x20]
        0x00000a48:    4620         F      MOV      r0,r4
        0x00000a4a:    68e1        .h      LDR      r1,[r4,#0xc]
        0x00000a4c:    4788        .G      BLX      r1
        0x00000a4e:    b330        0.      CBZ      r0,0xa9e ; __printf + 98
        0x00000a50:    2825        %(      CMP      r0,#0x25
        0x00000a52:    d005        ..      BEQ      0xa60 ; __printf + 36
        0x00000a54:    e9d42101    ...!    LDRD     r2,r1,[r4,#4]
        0x00000a58:    4790        .G      BLX      r2
        0x00000a5a:    6a20         j      LDR      r0,[r4,#0x20]
        0x00000a5c:    1c40        @.      ADDS     r0,r0,#1
        0x00000a5e:    e7f2        ..      B        0xa46 ; __printf + 10
        0x00000a60:    68e1        .h      LDR      r1,[r4,#0xc]
        0x00000a62:    4620         F      MOV      r0,r4
        0x00000a64:    2700        .'      MOVS     r7,#0
        0x00000a66:    4788        .G      BLX      r1
        0x00000a68:    0005        ..      MOVS     r5,r0
        0x00000a6a:    d018        ..      BEQ      0xa9e ; __printf + 98
        0x00000a6c:    f1a50041    ..A.    SUB      r0,r5,#0x41
        0x00000a70:    2819        .(      CMP      r0,#0x19
        0x00000a72:    d802        ..      BHI      0xa7a ; __printf + 62
        0x00000a74:    3520         5      ADDS     r5,r5,#0x20
        0x00000a76:    f44f6700    O..g    MOV      r7,#0x800
        0x00000a7a:    4632        2F      MOV      r2,r6
        0x00000a7c:    4629        )F      MOV      r1,r5
        0x00000a7e:    4620         F      MOV      r0,r4
        0x00000a80:    6027        '`      STR      r7,[r4,#0]
        0x00000a82:    f7ffff45    ..E.    BL       _printf_d ; 0x910
        0x00000a86:    b140        @.      CBZ      r0,0xa9a ; __printf + 94
        0x00000a88:    2801        .(      CMP      r0,#1
        0x00000a8a:    d004        ..      BEQ      0xa96 ; __printf + 90
        0x00000a8c:    1df6        ..      ADDS     r6,r6,#7
        0x00000a8e:    f0260607    &...    BIC      r6,r6,#7
        0x00000a92:    3608        .6      ADDS     r6,r6,#8
        0x00000a94:    e7d8        ..      B        0xa48 ; __printf + 12
        0x00000a96:    1d36        6.      ADDS     r6,r6,#4
        0x00000a98:    e7d6        ..      B        0xa48 ; __printf + 12
        0x00000a9a:    4628        (F      MOV      r0,r5
        0x00000a9c:    e7da        ..      B        0xa54 ; __printf + 24
        0x00000a9e:    6a20         j      LDR      r0,[r4,#0x20]
        0x00000aa0:    e8bd81f0    ....    POP      {r4-r8,pc}
    .text
    _printf_str
        0x00000aa4:    b570        p.      PUSH     {r4-r6,lr}
        0x00000aa6:    460c        .F      MOV      r4,r1
        0x00000aa8:    4605        .F      MOV      r5,r0
        0x00000aaa:    2a01        .*      CMP      r2,#1
        0x00000aac:    d005        ..      BEQ      0xaba ; _printf_str + 22
        0x00000aae:    7828        (x      LDRB     r0,[r5,#0]
        0x00000ab0:    0680        ..      LSLS     r0,r0,#26
        0x00000ab2:    d500        ..      BPL      0xab6 ; _printf_str + 18
        0x00000ab4:    69ea        .i      LDR      r2,[r5,#0x1c]
        0x00000ab6:    2300        .#      MOVS     r3,#0
        0x00000ab8:    e002        ..      B        0xac0 ; _printf_str + 28
        0x00000aba:    2301        .#      MOVS     r3,#1
        0x00000abc:    e005        ..      B        0xaca ; _printf_str + 38
        0x00000abe:    1c5b        [.      ADDS     r3,r3,#1
        0x00000ac0:    4293        .B      CMP      r3,r2
        0x00000ac2:    d202        ..      BCS      0xaca ; _printf_str + 38
        0x00000ac4:    5ce0        .\      LDRB     r0,[r4,r3]
        0x00000ac6:    2800        .(      CMP      r0,#0
        0x00000ac8:    d1f9        ..      BNE      0xabe ; _printf_str + 26
        0x00000aca:    69a8        .i      LDR      r0,[r5,#0x18]
        0x00000acc:    18e6        ..      ADDS     r6,r4,r3
        0x00000ace:    1ac0        ..      SUBS     r0,r0,r3
        0x00000ad0:    61a8        .a      STR      r0,[r5,#0x18]
        0x00000ad2:    6a28        (j      LDR      r0,[r5,#0x20]
        0x00000ad4:    4418        .D      ADD      r0,r0,r3
        0x00000ad6:    6228        (b      STR      r0,[r5,#0x20]
        0x00000ad8:    4628        (F      MOV      r0,r5
        0x00000ada:    f3af8000    ....    NOP.W    
        0x00000ade:    e004        ..      B        0xaea ; _printf_str + 70
        0x00000ae0:    e9d52101    ...!    LDRD     r2,r1,[r5,#4]
        0x00000ae4:    f8140b01    ....    LDRB     r0,[r4],#1
        0x00000ae8:    4790        .G      BLX      r2
        0x00000aea:    42b4        .B      CMP      r4,r6
        0x00000aec:    d3f8        ..      BCC      0xae0 ; _printf_str + 60
        0x00000aee:    4628        (F      MOV      r0,r5
        0x00000af0:    f3af8000    ....    NOP.W    
        0x00000af4:    bd70        p.      POP      {r4-r6,pc}
        0x00000af6:    0000        ..      MOVS     r0,r0
    .text
    _printf_int_dec
        0x00000af8:    e92d41f0    -..A    PUSH     {r4-r8,lr}
        0x00000afc:    4606        .F      MOV      r6,r0
        0x00000afe:    2400        .$      MOVS     r4,#0
        0x00000b00:    6810        .h      LDR      r0,[r2,#0]
        0x00000b02:    2975        u)      CMP      r1,#0x75
        0x00000b04:    4631        1F      MOV      r1,r6
        0x00000b06:    a516        ..      ADR      r5,{pc}+0x5a ; 0xb60
        0x00000b08:    d010        ..      BEQ      0xb2c ; _printf_int_dec + 52
        0x00000b0a:    f3af8000    ....    NOP.W    
        0x00000b0e:    2800        .(      CMP      r0,#0
        0x00000b10:    da02        ..      BGE      0xb18 ; _printf_int_dec + 32
        0x00000b12:    4240        @B      RSBS     r0,r0,#0
        0x00000b14:    a513        ..      ADR      r5,{pc}+0x50 ; 0xb64
        0x00000b16:    e007        ..      B        0xb28 ; _printf_int_dec + 48
        0x00000b18:    6831        1h      LDR      r1,[r6,#0]
        0x00000b1a:    078a        ..      LSLS     r2,r1,#30
        0x00000b1c:    d501        ..      BPL      0xb22 ; _printf_int_dec + 42
        0x00000b1e:    a512        ..      ADR      r5,{pc}+0x4a ; 0xb68
        0x00000b20:    e002        ..      B        0xb28 ; _printf_int_dec + 48
        0x00000b22:    0749        I.      LSLS     r1,r1,#29
        0x00000b24:    d504        ..      BPL      0xb30 ; _printf_int_dec + 56
        0x00000b26:    a511        ..      ADR      r5,{pc}+0x46 ; 0xb6c
        0x00000b28:    2401        .$      MOVS     r4,#1
        0x00000b2a:    e001        ..      B        0xb30 ; _printf_int_dec + 56
        0x00000b2c:    f3af8000    ....    NOP.W    
        0x00000b30:    2100        .!      MOVS     r1,#0
        0x00000b32:    220a        ."      MOVS     r2,#0xa
        0x00000b34:    f1060724    ..$.    ADD      r7,r6,#0x24
        0x00000b38:    e009        ..      B        0xb4e ; _printf_int_dec + 86
        0x00000b3a:    fbb0fcf2    ....    UDIV     r12,r0,r2
        0x00000b3e:    fbb0f3f2    ....    UDIV     r3,r0,r2
        0x00000b42:    fb02001c    ....    MLS      r0,r2,r12,r0
        0x00000b46:    3030        00      ADDS     r0,r0,#0x30
        0x00000b48:    5478        xT      STRB     r0,[r7,r1]
        0x00000b4a:    4618        .F      MOV      r0,r3
        0x00000b4c:    1c49        I.      ADDS     r1,r1,#1
        0x00000b4e:    2800        .(      CMP      r0,#0
        0x00000b50:    d1f3        ..      BNE      0xb3a ; _printf_int_dec + 66
        0x00000b52:    4623        #F      MOV      r3,r4
        0x00000b54:    462a        *F      MOV      r2,r5
        0x00000b56:    4630        0F      MOV      r0,r6
        0x00000b58:    e8bd41f0    ...A    POP      {r4-r8,lr}
        0x00000b5c:    f000b84d    ..M.    B.W      _printf_int_common ; 0xbfa
    $d
        0x00000b60:    00000000    ....    DCD    0
        0x00000b64:    0000002d    -...    DCD    45
        0x00000b68:    0000002b    +...    DCD    43
        0x00000b6c:    00000020     ...    DCD    32
    $t
    .text
    _printf_int_hex
    _printf_longlong_hex
        0x00000b70:    b570        p.      PUSH     {r4-r6,lr}
        0x00000b72:    4604        .F      MOV      r4,r0
        0x00000b74:    460d        .F      MOV      r5,r1
        0x00000b76:    4621        !F      MOV      r1,r4
        0x00000b78:    6810        .h      LDR      r0,[r2,#0]
        0x00000b7a:    f3af8000    ....    NOP.W    
        0x00000b7e:    8821        !.      LDRH     r1,[r4,#0]
        0x00000b80:    0509        ..      LSLS     r1,r1,#20
        0x00000b82:    d502        ..      BPL      0xb8a ; _printf_int_hex + 26
        0x00000b84:    4a0f        .J      LDR      r2,[pc,#60] ; [0xbc4] = 0x1ce6
        0x00000b86:    447a        zD      ADD      r2,r2,pc
        0x00000b88:    e002        ..      B        0xb90 ; _printf_int_hex + 32
        0x00000b8a:    4a0e        .J      LDR      r2,[pc,#56] ; [0xbc4] = 0x1ce6
        0x00000b8c:    447a        zD      ADD      r2,r2,pc
        0x00000b8e:    320e        .2      ADDS     r2,r2,#0xe
        0x00000b90:    2100        .!      MOVS     r1,#0
        0x00000b92:    f1040324    ..$.    ADD      r3,r4,#0x24
        0x00000b96:    e005        ..      B        0xba4 ; _printf_int_hex + 52
        0x00000b98:    f000060f    ....    AND      r6,r0,#0xf
        0x00000b9c:    0900        ..      LSRS     r0,r0,#4
        0x00000b9e:    5d96        .]      LDRB     r6,[r2,r6]
        0x00000ba0:    545e        ^T      STRB     r6,[r3,r1]
        0x00000ba2:    1c49        I.      ADDS     r1,r1,#1
        0x00000ba4:    2800        .(      CMP      r0,#0
        0x00000ba6:    d1f7        ..      BNE      0xb98 ; _printf_int_hex + 40
        0x00000ba8:    7820         x      LDRB     r0,[r4,#0]
        0x00000baa:    2300        .#      MOVS     r3,#0
        0x00000bac:    0700        ..      LSLS     r0,r0,#28
        0x00000bae:    d504        ..      BPL      0xbba ; _printf_int_hex + 74
        0x00000bb0:    2d70        p-      CMP      r5,#0x70
        0x00000bb2:    d002        ..      BEQ      0xbba ; _printf_int_hex + 74
        0x00000bb4:    b109        ..      CBZ      r1,0xbba ; _printf_int_hex + 74
        0x00000bb6:    2302        .#      MOVS     r3,#2
        0x00000bb8:    3211        .2      ADDS     r2,r2,#0x11
        0x00000bba:    4620         F      MOV      r0,r4
        0x00000bbc:    e8bd4070    ..p@    POP      {r4-r6,lr}
        0x00000bc0:    f000b81b    ....    B.W      _printf_int_common ; 0xbfa
    $d
        0x00000bc4:    00001ce6    ....    DCD    7398
    $t
    .text
    puts
        0x00000bc8:    b510        ..      PUSH     {r4,lr}
        0x00000bca:    4604        .F      MOV      r4,r0
        0x00000bcc:    e003        ..      B        0xbd6 ; puts + 14
        0x00000bce:    f001fa81    ....    BL       fputc ; 0x20d4
        0x00000bd2:    1c40        @.      ADDS     r0,r0,#1
        0x00000bd4:    d009        ..      BEQ      0xbea ; puts + 34
        0x00000bd6:    f8140b01    ....    LDRB     r0,[r4],#1
        0x00000bda:    4905        .I      LDR      r1,[pc,#20] ; [0xbf0] = 0x2000001c
        0x00000bdc:    2800        .(      CMP      r0,#0
        0x00000bde:    d1f6        ..      BNE      0xbce ; puts + 6
        0x00000be0:    e8bd4010    ...@    POP      {r4,lr}
        0x00000be4:    200a        .       MOVS     r0,#0xa
        0x00000be6:    f001ba75    ..u.    B.W      fputc ; 0x20d4
        0x00000bea:    f04f30ff    O..0    MOV      r0,#0xffffffff
        0x00000bee:    bd10        ..      POP      {r4,pc}
    $d
        0x00000bf0:    2000001c    ...     DCD    536870940
    $t
    .text
    __use_two_region_memory
        0x00000bf4:    4770        pG      BX       lr
    __rt_heap_escrow$2region
        0x00000bf6:    4770        pG      BX       lr
    __rt_heap_expand$2region
        0x00000bf8:    4770        pG      BX       lr
    .text
    _printf_int_common
        0x00000bfa:    e92d47f0    -..G    PUSH     {r4-r10,lr}
        0x00000bfe:    460d        .F      MOV      r5,r1
        0x00000c00:    4699        .F      MOV      r9,r3
        0x00000c02:    4692        .F      MOV      r10,r2
        0x00000c04:    4604        .F      MOV      r4,r0
        0x00000c06:    f1000824    ..$.    ADD      r8,r0,#0x24
        0x00000c0a:    6801        .h      LDR      r1,[r0,#0]
        0x00000c0c:    0688        ..      LSLS     r0,r1,#26
        0x00000c0e:    d504        ..      BPL      0xc1a ; _printf_int_common + 32
        0x00000c10:    69e0        .i      LDR      r0,[r4,#0x1c]
        0x00000c12:    f0210110    !...    BIC      r1,r1,#0x10
        0x00000c16:    6021        !`      STR      r1,[r4,#0]
        0x00000c18:    e000        ..      B        0xc1c ; _printf_int_common + 34
        0x00000c1a:    2001        .       MOVS     r0,#1
        0x00000c1c:    42a8        .B      CMP      r0,r5
        0x00000c1e:    dd01        ..      BLE      0xc24 ; _printf_int_common + 42
        0x00000c20:    1b47        G.      SUBS     r7,r0,r5
        0x00000c22:    e000        ..      B        0xc26 ; _printf_int_common + 44
        0x00000c24:    2700        .'      MOVS     r7,#0
        0x00000c26:    69a1        .i      LDR      r1,[r4,#0x18]
        0x00000c28:    197a        z.      ADDS     r2,r7,r5
        0x00000c2a:    eb020009    ....    ADD      r0,r2,r9
        0x00000c2e:    1a08        ..      SUBS     r0,r1,r0
        0x00000c30:    61a0        .a      STR      r0,[r4,#0x18]
        0x00000c32:    7820         x      LDRB     r0,[r4,#0]
        0x00000c34:    06c0        ..      LSLS     r0,r0,#27
        0x00000c36:    d402        ..      BMI      0xc3e ; _printf_int_common + 68
        0x00000c38:    4620         F      MOV      r0,r4
        0x00000c3a:    f3af8000    ....    NOP.W    
        0x00000c3e:    2600        .&      MOVS     r6,#0
        0x00000c40:    e008        ..      B        0xc54 ; _printf_int_common + 90
        0x00000c42:    e9d42101    ...!    LDRD     r2,r1,[r4,#4]
        0x00000c46:    f81a0006    ....    LDRB     r0,[r10,r6]
        0x00000c4a:    4790        .G      BLX      r2
        0x00000c4c:    6a20         j      LDR      r0,[r4,#0x20]
        0x00000c4e:    1c40        @.      ADDS     r0,r0,#1
        0x00000c50:    1c76        v.      ADDS     r6,r6,#1
        0x00000c52:    6220         b      STR      r0,[r4,#0x20]
        0x00000c54:    454e        NE      CMP      r6,r9
        0x00000c56:    dbf4        ..      BLT      0xc42 ; _printf_int_common + 72
        0x00000c58:    7820         x      LDRB     r0,[r4,#0]
        0x00000c5a:    06c0        ..      LSLS     r0,r0,#27
        0x00000c5c:    d50a        ..      BPL      0xc74 ; _printf_int_common + 122
        0x00000c5e:    4620         F      MOV      r0,r4
        0x00000c60:    f3af8000    ....    NOP.W    
        0x00000c64:    e006        ..      B        0xc74 ; _printf_int_common + 122
        0x00000c66:    e9d42101    ...!    LDRD     r2,r1,[r4,#4]
        0x00000c6a:    2030        0       MOVS     r0,#0x30
        0x00000c6c:    4790        .G      BLX      r2
        0x00000c6e:    6a20         j      LDR      r0,[r4,#0x20]
        0x00000c70:    1c40        @.      ADDS     r0,r0,#1
        0x00000c72:    6220         b      STR      r0,[r4,#0x20]
        0x00000c74:    1e38        8.      SUBS     r0,r7,#0
        0x00000c76:    f1a70701    ....    SUB      r7,r7,#1
        0x00000c7a:    dcf4        ..      BGT      0xc66 ; _printf_int_common + 108
        0x00000c7c:    e007        ..      B        0xc8e ; _printf_int_common + 148
        0x00000c7e:    e9d42101    ...!    LDRD     r2,r1,[r4,#4]
        0x00000c82:    f8180005    ....    LDRB     r0,[r8,r5]
        0x00000c86:    4790        .G      BLX      r2
        0x00000c88:    6a20         j      LDR      r0,[r4,#0x20]
        0x00000c8a:    1c40        @.      ADDS     r0,r0,#1
        0x00000c8c:    6220         b      STR      r0,[r4,#0x20]
        0x00000c8e:    1e28        (.      SUBS     r0,r5,#0
        0x00000c90:    f1a50501    ....    SUB      r5,r5,#1
        0x00000c94:    dcf3        ..      BGT      0xc7e ; _printf_int_common + 132
        0x00000c96:    4620         F      MOV      r0,r4
        0x00000c98:    f3af8000    ....    NOP.W    
        0x00000c9c:    7820         x      LDRB     r0,[r4,#0]
        0x00000c9e:    0600        ..      LSLS     r0,r0,#24
        0x00000ca0:    d502        ..      BPL      0xca8 ; _printf_int_common + 174
        0x00000ca2:    2002        .       MOVS     r0,#2
        0x00000ca4:    e8bd87f0    ....    POP      {r4-r10,pc}
        0x00000ca8:    2001        .       MOVS     r0,#1
        0x00000caa:    e7fb        ..      B        0xca4 ; _printf_int_common + 170
    .text
    _printf_cs_common
        0x00000cac:    b510        ..      PUSH     {r4,lr}
        0x00000cae:    6943        Ci      LDR      r3,[r0,#0x14]
        0x00000cb0:    b113        ..      CBZ      r3,0xcb8 ; _printf_cs_common + 12
        0x00000cb2:    f3af8000    ....    NOP.W    
        0x00000cb6:    e001        ..      B        0xcbc ; _printf_cs_common + 16
        0x00000cb8:    f7fffef4    ....    BL       _printf_str ; 0xaa4
        0x00000cbc:    2001        .       MOVS     r0,#1
        0x00000cbe:    bd10        ..      POP      {r4,pc}
    _printf_char
        0x00000cc0:    7812        .x      LDRB     r2,[r2,#0]
        0x00000cc2:    f1000124    ..$.    ADD      r1,r0,#0x24
        0x00000cc6:    700a        .p      STRB     r2,[r1,#0]
        0x00000cc8:    2200        ."      MOVS     r2,#0
        0x00000cca:    704a        Jp      STRB     r2,[r1,#1]
        0x00000ccc:    2201        ."      MOVS     r2,#1
        0x00000cce:    e7ed        ..      B        _printf_cs_common ; 0xcac
    _printf_string
        0x00000cd0:    6811        .h      LDR      r1,[r2,#0]
        0x00000cd2:    f04f32ff    O..2    MOV      r2,#0xffffffff
        0x00000cd6:    e7e9        ..      B        _printf_cs_common ; 0xcac
    .text
    _printf_char_file
        0x00000cd8:    4b07        .K      LDR      r3,[pc,#28] ; [0xcf8] = 0x13f3
        0x00000cda:    b570        p.      PUSH     {r4-r6,lr}
        0x00000cdc:    460d        .F      MOV      r5,r1
        0x00000cde:    447b        {D      ADD      r3,r3,pc
        0x00000ce0:    f000f811    ....    BL       _printf_char_common ; 0xd06
        0x00000ce4:    4604        .F      MOV      r4,r0
        0x00000ce6:    4628        (F      MOV      r0,r5
        0x00000ce8:    f000f820    .. .    BL       ferror ; 0xd2c
        0x00000cec:    b110        ..      CBZ      r0,0xcf4 ; _printf_char_file + 28
        0x00000cee:    f04f30ff    O..0    MOV      r0,#0xffffffff
        0x00000cf2:    bd70        p.      POP      {r4-r6,pc}
        0x00000cf4:    4620         F      MOV      r0,r4
        0x00000cf6:    bd70        p.      POP      {r4-r6,pc}
    $d
        0x00000cf8:    000013f3    ....    DCD    5107
    $t
    .text
    _printf_input_char
        0x00000cfc:    6901        .i      LDR      r1,[r0,#0x10]
        0x00000cfe:    1c4a        J.      ADDS     r2,r1,#1
        0x00000d00:    6102        .a      STR      r2,[r0,#0x10]
        0x00000d02:    7808        .x      LDRB     r0,[r1,#0]
        0x00000d04:    4770        pG      BX       lr
    _printf_char_common
        0x00000d06:    b500        ..      PUSH     {lr}
        0x00000d08:    b08f        ..      SUB      sp,sp,#0x3c
        0x00000d0a:    e9cd3101    ...1    STRD     r3,r1,[sp,#4]
        0x00000d0e:    2100        .!      MOVS     r1,#0
        0x00000d10:    9105        ..      STR      r1,[sp,#0x14]
        0x00000d12:    4905        .I      LDR      r1,[pc,#20] ; [0xd28] = 0xffffffe5
        0x00000d14:    4479        yD      ADD      r1,r1,pc
        0x00000d16:    e9cd1003    ....    STRD     r1,r0,[sp,#0xc]
        0x00000d1a:    4611        .F      MOV      r1,r2
        0x00000d1c:    4668        hF      MOV      r0,sp
        0x00000d1e:    f7fffe8d    ....    BL       __printf ; 0xa3c
        0x00000d22:    b00f        ..      ADD      sp,sp,#0x3c
        0x00000d24:    bd00        ..      POP      {pc}
    $d
        0x00000d26:    0000        ..      DCW    0
        0x00000d28:    ffffffe5    ....    DCD    4294967269
    $t
    .text
    ferror
        0x00000d2c:    7b00        .{      LDRB     r0,[r0,#0xc]
        0x00000d2e:    f0000080    ....    AND      r0,r0,#0x80
        0x00000d32:    4770        pG      BX       lr
    .text
    exit
        0x00000d34:    b510        ..      PUSH     {r4,lr}
        0x00000d36:    4604        .F      MOV      r4,r0
        0x00000d38:    f3af8000    ....    NOP.W    
        0x00000d3c:    4620         F      MOV      r0,r4
        0x00000d3e:    e8bd4010    ...@    POP      {r4,lr}
        0x00000d42:    f7ffbe01    ....    B.W      __rt_exit ; 0x948
    .text
    __I$use$semihosting
    __use_no_semihosting_swi
        0x00000d46:    4770        pG      BX       lr
    .text
    .text
    __semihosting_library_function
    _sys_exit
        0x00000d48:    4901        .I      LDR      r1,[pc,#4] ; [0xd50] = 0x20026
        0x00000d4a:    2018        .       MOVS     r0,#0x18
        0x00000d4c:    beab        ..      BKPT     #0xab
        0x00000d4e:    e7fe        ..      B        0xd4e ; __semihosting_library_function + 6
    $d
        0x00000d50:    00020026    &...    DCD    131110
    $t.0
    GPIO_DeInit
        0x00000d54:    2100        .!      MOVS     r1,#0
        0x00000d56:    f2c40101    ....    MOVT     r1,#0x4001
        0x00000d5a:    4288        .B      CMP      r0,r1
        0x00000d5c:    bf18        ..      IT       NE
        0x00000d5e:    4770        pG      BXNE     lr
        0x00000d60:    f04f30ff    O..0    MOV      r0,#0xffffffff
        0x00000d64:    6148        Ha      STR      r0,[r1,#0x14]
        0x00000d66:    61c8        .a      STR      r0,[r1,#0x1c]
        0x00000d68:    6248        Hb      STR      r0,[r1,#0x24]
        0x00000d6a:    62c8        .b      STR      r0,[r1,#0x2c]
        0x00000d6c:    6348        Hc      STR      r0,[r1,#0x34]
        0x00000d6e:    2000        .       MOVS     r0,#0
        0x00000d70:    6048        H`      STR      r0,[r1,#4]
        0x00000d72:    6008        .`      STR      r0,[r1,#0]
        0x00000d74:    4770        pG      BX       lr
    GPIO_OutModeDisable
        0x00000d76:    2201        ."      MOVS     r2,#1
        0x00000d78:    fa02f101    ....    LSL      r1,r2,r1
        0x00000d7c:    6141        Aa      STR      r1,[r0,#0x14]
        0x00000d7e:    4770        pG      BX       lr
    GPIO_PinRemapConfig
        0x00000d80:    b112        ..      CBZ      r2,0xd88 ; GPIO_PinRemapConfig + 8
        0x00000d82:    6982        .i      LDR      r2,[r0,#0x18]
        0x00000d84:    4311        .C      ORRS     r1,r1,r2
        0x00000d86:    6181        .a      STR      r1,[r0,#0x18]
        0x00000d88:    4770        pG      BX       lr
    GPIO_ResetBit
        0x00000d8a:    2201        ."      MOVS     r2,#1
        0x00000d8c:    6903        .i      LDR      r3,[r0,#0x10]
        0x00000d8e:    fa02f101    ....    LSL      r1,r2,r1
        0x00000d92:    ea430201    C...    ORR      r2,r3,r1
        0x00000d96:    6102        .a      STR      r2,[r0,#0x10]
        0x00000d98:    6842        Bh      LDR      r2,[r0,#4]
        0x00000d9a:    ea220101    "...    BIC      r1,r2,r1
        0x00000d9e:    6041        A`      STR      r1,[r0,#4]
        0x00000da0:    4770        pG      BX       lr
    GPIO_SetBit
        0x00000da2:    2201        ."      MOVS     r2,#1
        0x00000da4:    6903        .i      LDR      r3,[r0,#0x10]
        0x00000da6:    fa02f101    ....    LSL      r1,r2,r1
        0x00000daa:    ea430201    C...    ORR      r2,r3,r1
        0x00000dae:    6102        .a      STR      r2,[r0,#0x10]
        0x00000db0:    6842        Bh      LDR      r2,[r0,#4]
        0x00000db2:    4311        .C      ORRS     r1,r1,r2
        0x00000db4:    6041        A`      STR      r1,[r0,#4]
        0x00000db6:    4770        pG      BX       lr
    GT911_Scan
        0x00000db8:    e92d43f0    -..C    PUSH     {r4-r9,lr}
        0x00000dbc:    b083        ..      SUB      sp,sp,#0xc
        0x00000dbe:    f1000528    ..(.    ADD      r5,r0,#0x28
        0x00000dc2:    4604        .F      MOV      r4,r0
        0x00000dc4:    f248104e    H.N.    MOV      r0,#0x814e
        0x00000dc8:    2101        .!      MOVS     r1,#1
        0x00000dca:    462a        *F      MOV      r2,r5
        0x00000dcc:    f000f8fa    ....    BL       GT9XX_ReadData ; 0xfc4
        0x00000dd0:    2100        .!      MOVS     r1,#0
        0x00000dd2:    f1b03fff    ...?    CMP      r0,#0xffffffff
        0x00000dd6:    f8841029    ..).    STRB     r1,[r4,#0x29]
        0x00000dda:    dd0e        ..      BLE      0xdfa ; GT911_Scan + 66
        0x00000ddc:    f9950000    ....    LDRSB    r0,[r5,#0]
        0x00000de0:    f1b03fff    ...?    CMP      r0,#0xffffffff
        0x00000de4:    dd17        ..      BLE      0xe16 ; GT911_Scan + 94
        0x00000de6:    a03f        ?.      ADR      r0,{pc}+0xfe ; 0xee4
        0x00000de8:    f7fffeee    ....    BL       puts ; 0xbc8
        0x00000dec:    f64f3045    O.E0    MOV      r0,#0xfb45
        0x00000df0:    f6cf70ff    ...p    MOVT     r0,#0xffff
        0x00000df4:    f1000413    ....    ADD      r4,r0,#0x13
        0x00000df8:    e05d        ].      B        0xeb6 ; GT911_Scan + 254
        0x00000dfa:    f64240c3    B..@    MOV      r0,#0x2cc3
        0x00000dfe:    f2c00000    ....    MOVT     r0,#0
        0x00000e02:    21b4        .!      MOVS     r1,#0xb4
        0x00000e04:    f7fffe0e    ....    BL       __2printf ; 0xa24
        0x00000e08:    f64f3045    O.E0    MOV      r0,#0xfb45
        0x00000e0c:    f6cf70ff    ...p    MOVT     r0,#0xffff
        0x00000e10:    f100041e    ....    ADD      r4,r0,#0x1e
        0x00000e14:    e04f        O.      B        0xeb6 ; GT911_Scan + 254
        0x00000e16:    f000010f    ....    AND      r1,r0,#0xf
        0x00000e1a:    a029        ).      ADR      r0,{pc}+0xa6 ; 0xec0
        0x00000e1c:    f8841029    ..).    STRB     r1,[r4,#0x29]
        0x00000e20:    f7fffe00    ....    BL       __2printf ; 0xa24
        0x00000e24:    f8940029    ..).    LDRB     r0,[r4,#0x29]
        0x00000e28:    b328        (.      CBZ      r0,0xe76 ; GT911_Scan + 190
        0x00000e2a:    f248184f    H.O.    MOV      r8,#0x814f
        0x00000e2e:    2500        .%      MOVS     r5,#0
        0x00000e30:    2701        .'      MOVS     r7,#1
        0x00000e32:    f6cf78ff    ...x    MOVT     r8,#0xffff
        0x00000e36:    f20f0994    ....    ADR.W    r9,{pc}+0x96 ; 0xecc
        0x00000e3a:    bf00        ..      NOP      
        0x00000e3c:    eb0800c5    ....    ADD      r0,r8,r5,LSL #3
        0x00000e40:    19e2        ..      ADDS     r2,r4,r7
        0x00000e42:    b280        ..      UXTH     r0,r0
        0x00000e44:    2107        .!      MOVS     r1,#7
        0x00000e46:    f000f8bd    ....    BL       GT9XX_ReadData ; 0xfc4
        0x00000e4a:    f1b03fff    ...?    CMP      r0,#0xffffffff
        0x00000e4e:    dd25        %.      BLE      0xe9c ; GT911_Scan + 228
        0x00000e50:    eb0400c5    ....    ADD      r0,r4,r5,LSL #3
        0x00000e54:    5de2        .]      LDRB     r2,[r4,r7]
        0x00000e56:    8881        ..      LDRH     r1,[r0,#4]
        0x00000e58:    8843        C.      LDRH     r3,[r0,#2]
        0x00000e5a:    88c6        ..      LDRH     r6,[r0,#6]
        0x00000e5c:    9100        ..      STR      r1,[sp,#0]
        0x00000e5e:    4648        HF      MOV      r0,r9
        0x00000e60:    4629        )F      MOV      r1,r5
        0x00000e62:    9601        ..      STR      r6,[sp,#4]
        0x00000e64:    f7fffdde    ....    BL       __2printf ; 0xa24
        0x00000e68:    f8940029    ..).    LDRB     r0,[r4,#0x29]
        0x00000e6c:    3501        .5      ADDS     r5,#1
        0x00000e6e:    4285        .B      CMP      r5,r0
        0x00000e70:    f1070708    ....    ADD      r7,r7,#8
        0x00000e74:    d3e2        ..      BCC      0xe3c ; GT911_Scan + 132
        0x00000e76:    f248104e    H.N.    MOV      r0,#0x814e
        0x00000e7a:    2100        .!      MOVS     r1,#0
        0x00000e7c:    2400        .$      MOVS     r4,#0
        0x00000e7e:    f000f90d    ....    BL       GT9XX_WriteData ; 0x109c
        0x00000e82:    f1b03fff    ...?    CMP      r0,#0xffffffff
        0x00000e86:    dc16        ..      BGT      0xeb6 ; GT911_Scan + 254
        0x00000e88:    f64240c3    B..@    MOV      r0,#0x2cc3
        0x00000e8c:    f2c00000    ....    MOVT     r0,#0
        0x00000e90:    21d2        .!      MOVS     r1,#0xd2
        0x00000e92:    f64f3445    O.E4    MOV      r4,#0xfb45
        0x00000e96:    f7fffdc5    ....    BL       __2printf ; 0xa24
        0x00000e9a:    e00c        ..      B        0xeb6 ; GT911_Scan + 254
        0x00000e9c:    f64240c3    B..@    MOV      r0,#0x2cc3
        0x00000ea0:    f2c00000    ....    MOVT     r0,#0
        0x00000ea4:    21c8        .!      MOVS     r1,#0xc8
        0x00000ea6:    f7fffdbd    ....    BL       __2printf ; 0xa24
        0x00000eaa:    f64f3045    O.E0    MOV      r0,#0xfb45
        0x00000eae:    f6cf70ff    ...p    MOVT     r0,#0xffff
        0x00000eb2:    f100040a    ....    ADD      r4,r0,#0xa
        0x00000eb6:    b220         .      SXTH     r0,r4
        0x00000eb8:    b003        ..      ADD      sp,sp,#0xc
        0x00000eba:    e8bd83f0    ....    POP      {r4-r9,pc}
        0x00000ebe:    bf00        ..      NOP      
    $d.5
        0x00000ec0:    253a6b6f    ok:%    DCD    624585583
        0x00000ec4:    73747064    dpts    DCD    1937010788
        0x00000ec8:    00000a0d    ....    DCD    2573
        0x00000ecc:    5d64255b    [%d]    DCD    1566844251
        0x00000ed0:    2364253a    :%d#    DCD    593765690
        0x00000ed4:    2c642528    (%d,    DCD    744760616
        0x00000ed8:    40296425    %d)@    DCD    1076454437
        0x00000edc:    0a0d6425    %d..    DCD    168649765
        0x00000ee0:    00000000    ....    DCD    0
        0x00000ee4:    64206f6e    no d    DCD    1679847278
        0x00000ee8:    0d617461    ata.    DCD    224490593
        0x00000eec:    00000000    ....    DCD    0
    $t.2
    GT911_init
        0x00000ef0:    b510        ..      PUSH     {r4,lr}
        0x00000ef2:    b082        ..      SUB      sp,sp,#8
        0x00000ef4:    2400        .$      MOVS     r4,#0
        0x00000ef6:    f2c40401    ....    MOVT     r4,#0x4001
        0x00000efa:    4620         F      MOV      r0,r4
        0x00000efc:    2112        .!      MOVS     r1,#0x12
        0x00000efe:    f7ffff44    ..D.    BL       GPIO_ResetBit ; 0xd8a
        0x00000f02:    4620         F      MOV      r0,r4
        0x00000f04:    2115        .!      MOVS     r1,#0x15
        0x00000f06:    f7ffff40    ..@.    BL       GPIO_ResetBit ; 0xd8a
        0x00000f0a:    200a        .       MOVS     r0,#0xa
        0x00000f0c:    f001f8d4    ....    BL       delay_ms ; 0x20b8
        0x00000f10:    f001fbd3    ....    BL       swi2c_init ; 0x26ba
        0x00000f14:    4620         F      MOV      r0,r4
        0x00000f16:    2112        .!      MOVS     r1,#0x12
        0x00000f18:    f7ffff43    ..C.    BL       GPIO_SetBit ; 0xda2
        0x00000f1c:    200a        .       MOVS     r0,#0xa
        0x00000f1e:    f001f8cb    ....    BL       delay_ms ; 0x20b8
        0x00000f22:    4620         F      MOV      r0,r4
        0x00000f24:    2115        .!      MOVS     r1,#0x15
        0x00000f26:    f7ffff26    ..&.    BL       GPIO_OutModeDisable ; 0xd76
        0x00000f2a:    ac01        ..      ADD      r4,sp,#4
        0x00000f2c:    f2481040    H.@.    MOV      r0,#0x8140
        0x00000f30:    2104        .!      MOVS     r1,#4
        0x00000f32:    4622        "F      MOV      r2,r4
        0x00000f34:    f000f846    ..F.    BL       GT9XX_ReadData ; 0xfc4
        0x00000f38:    a00e        ..      ADR      r0,{pc}+0x3c ; 0xf74
        0x00000f3a:    4621        !F      MOV      r1,r4
        0x00000f3c:    f7fffd72    ..r.    BL       __2printf ; 0xa24
        0x00000f40:    f10d0402    ....    ADD      r4,sp,#2
        0x00000f44:    f2481046    H.F.    MOV      r0,#0x8146
        0x00000f48:    2102        .!      MOVS     r1,#2
        0x00000f4a:    4622        "F      MOV      r2,r4
        0x00000f4c:    f000f83a    ..:.    BL       GT9XX_ReadData ; 0xfc4
        0x00000f50:    f8bd1002    ....    LDRH     r1,[sp,#2]
        0x00000f54:    a00b        ..      ADR      r0,{pc}+0x30 ; 0xf84
        0x00000f56:    f7fffd65    ..e.    BL       __2printf ; 0xa24
        0x00000f5a:    f2481048    H.H.    MOV      r0,#0x8148
        0x00000f5e:    2102        .!      MOVS     r1,#2
        0x00000f60:    4622        "F      MOV      r2,r4
        0x00000f62:    f000f82f    ../.    BL       GT9XX_ReadData ; 0xfc4
        0x00000f66:    f8bd1002    ....    LDRH     r1,[sp,#2]
        0x00000f6a:    a00e        ..      ADR      r0,{pc}+0x3a ; 0xfa4
        0x00000f6c:    f7fffd5a    ..Z.    BL       __2printf ; 0xa24
        0x00000f70:    b002        ..      ADD      sp,sp,#8
        0x00000f72:    bd10        ..      POP      {r4,pc}
    $d.3
        0x00000f74:    63756f54    Touc    DCD    1668640596
        0x00000f78:    44492068    h ID    DCD    1145643112
        0x00000f7c:    7325203a    : %s    DCD    1931812922
        0x00000f80:    00000a0d    ....    DCD    2573
        0x00000f84:    6f632078    x co    DCD    1868767352
        0x00000f88:    6964726f    ordi    DCD    1768190575
        0x00000f8c:    6574616e    nate    DCD    1702125934
        0x00000f90:    73657220     res    DCD    1936028192
        0x00000f94:    74756c6f    olut    DCD    1953852527
        0x00000f98:    3a6e6f69    ion:    DCD    980316009
        0x00000f9c:    0d642520     %d.    DCD    224666912
        0x00000fa0:    0000000a    ....    DCD    10
        0x00000fa4:    6f632079    y co    DCD    1868767353
        0x00000fa8:    6964726f    ordi    DCD    1768190575
        0x00000fac:    6574616e    nate    DCD    1702125934
        0x00000fb0:    73657220     res    DCD    1936028192
        0x00000fb4:    74756c6f    olut    DCD    1953852527
        0x00000fb8:    3a6e6f69    ion:    DCD    980316009
        0x00000fbc:    0d642520     %d.    DCD    224666912
        0x00000fc0:    0000000a    ....    DCD    10
    $t.1
    GT9XX_ReadData
        0x00000fc4:    e92d43f0    -..C    PUSH     {r4-r9,lr}
        0x00000fc8:    b081        ..      SUB      sp,sp,#4
        0x00000fca:    4690        .F      MOV      r8,r2
        0x00000fcc:    460d        .F      MOV      r5,r1
        0x00000fce:    4606        .F      MOV      r6,r0
        0x00000fd0:    f001fa8e    ....    BL       start_i2c ; 0x24f0
        0x00000fd4:    2800        .(      CMP      r0,#0
        0x00000fd6:    d448        H.      BMI      0x106a ; GT9XX_ReadData + 166
        0x00000fd8:    20ba        .       MOVS     r0,#0xba
        0x00000fda:    f64f3791    O..7    MOV      r7,#0xfb91
        0x00000fde:    f001fb97    ....    BL       write_i2c ; 0x2710
        0x00000fe2:    2800        .(      CMP      r0,#0
        0x00000fe4:    f1070438    ..8.    ADD      r4,r7,#0x38
        0x00000fe8:    d445        E.      BMI      0x1076 ; GT9XX_ReadData + 178
        0x00000fea:    2801        .(      CMP      r0,#1
        0x00000fec:    d043        C.      BEQ      0x1076 ; GT9XX_ReadData + 178
        0x00000fee:    0a30        0.      LSRS     r0,r6,#8
        0x00000ff0:    f001fb8e    ....    BL       write_i2c ; 0x2710
        0x00000ff4:    2800        .(      CMP      r0,#0
        0x00000ff6:    f1070431    ..1.    ADD      r4,r7,#0x31
        0x00000ffa:    d43c        <.      BMI      0x1076 ; GT9XX_ReadData + 178
        0x00000ffc:    2801        .(      CMP      r0,#1
        0x00000ffe:    d03a        :.      BEQ      0x1076 ; GT9XX_ReadData + 178
        0x00001000:    b2f0        ..      UXTB     r0,r6
        0x00001002:    f001fb85    ....    BL       write_i2c ; 0x2710
        0x00001006:    4606        .F      MOV      r6,r0
        0x00001008:    f001fafc    ....    BL       stop_i2c ; 0x2604
        0x0000100c:    2e00        ..      CMP      r6,#0
        0x0000100e:    f107042a    ..*.    ADD      r4,r7,#0x2a
        0x00001012:    d432        2.      BMI      0x107a ; GT9XX_ReadData + 182
        0x00001014:    2e01        ..      CMP      r6,#1
        0x00001016:    d030        0.      BEQ      0x107a ; GT9XX_ReadData + 182
        0x00001018:    2800        .(      CMP      r0,#0
        0x0000101a:    d432        2.      BMI      0x1082 ; GT9XX_ReadData + 190
        0x0000101c:    f001fa68    ..h.    BL       start_i2c ; 0x24f0
        0x00001020:    2800        .(      CMP      r0,#0
        0x00001022:    d431        1.      BMI      0x1088 ; GT9XX_ReadData + 196
        0x00001024:    20bb        .       MOVS     r0,#0xbb
        0x00001026:    f001fb73    ..s.    BL       write_i2c ; 0x2710
        0x0000102a:    2800        .(      CMP      r0,#0
        0x0000102c:    f1070415    ....    ADD      r4,r7,#0x15
        0x00001030:    d421        !.      BMI      0x1076 ; GT9XX_ReadData + 178
        0x00001032:    2801        .(      CMP      r0,#1
        0x00001034:    d01f        ..      BEQ      0x1076 ; GT9XX_ReadData + 178
        0x00001036:    b355        U.      CBZ      r5,0x108e ; GT9XX_ReadData + 202
        0x00001038:    1e6e        n.      SUBS     r6,r5,#1
        0x0000103a:    f107090a    ....    ADD      r9,r7,#0xa
        0x0000103e:    4647        GF      MOV      r7,r8
        0x00001040:    2400        .$      MOVS     r4,#0
        0x00001042:    2d01        .-      CMP      r5,#1
        0x00001044:    d107        ..      BNE      0x1056 ; GT9XX_ReadData + 146
        0x00001046:    2001        .       MOVS     r0,#1
        0x00001048:    f001f93c    ..<.    BL       read_i2c ; 0x22c4
        0x0000104c:    2800        .(      CMP      r0,#0
        0x0000104e:    d420         .      BMI      0x1092 ; GT9XX_ReadData + 206
        0x00001050:    f8080006    ....    STRB     r0,[r8,r6]
        0x00001054:    e005        ..      B        0x1062 ; GT9XX_ReadData + 158
        0x00001056:    2000        .       MOVS     r0,#0
        0x00001058:    f001f934    ..4.    BL       read_i2c ; 0x22c4
        0x0000105c:    2800        .(      CMP      r0,#0
        0x0000105e:    d41a        ..      BMI      0x1096 ; GT9XX_ReadData + 210
        0x00001060:    7038        8p      STRB     r0,[r7,#0]
        0x00001062:    3701        .7      ADDS     r7,#1
        0x00001064:    3d01        .=      SUBS     r5,#1
        0x00001066:    d1ec        ..      BNE      0x1042 ; GT9XX_ReadData + 126
        0x00001068:    e005        ..      B        0x1076 ; GT9XX_ReadData + 178
        0x0000106a:    f64f3091    O..0    MOV      r0,#0xfb91
        0x0000106e:    f6cf70ff    ...p    MOVT     r0,#0xffff
        0x00001072:    f100043f    ..?.    ADD      r4,r0,#0x3f
        0x00001076:    f001fac5    ....    BL       stop_i2c ; 0x2604
        0x0000107a:    b220         .      SXTH     r0,r4
        0x0000107c:    b001        ..      ADD      sp,sp,#4
        0x0000107e:    e8bd83f0    ....    POP      {r4-r9,pc}
        0x00001082:    f1070423    ..#.    ADD      r4,r7,#0x23
        0x00001086:    e7f6        ..      B        0x1076 ; GT9XX_ReadData + 178
        0x00001088:    f107041c    ....    ADD      r4,r7,#0x1c
        0x0000108c:    e7f3        ..      B        0x1076 ; GT9XX_ReadData + 178
        0x0000108e:    2400        .$      MOVS     r4,#0
        0x00001090:    e7f1        ..      B        0x1076 ; GT9XX_ReadData + 178
        0x00001092:    464c        LF      MOV      r4,r9
        0x00001094:    e7ef        ..      B        0x1076 ; GT9XX_ReadData + 178
        0x00001096:    f64f3491    O..4    MOV      r4,#0xfb91
        0x0000109a:    e7ec        ..      B        0x1076 ; GT9XX_ReadData + 178
    GT9XX_WriteData
        0x0000109c:    b570        p.      PUSH     {r4-r6,lr}
        0x0000109e:    460c        .F      MOV      r4,r1
        0x000010a0:    4605        .F      MOV      r5,r0
        0x000010a2:    f64f36df    O..6    MOV      r6,#0xfbdf
        0x000010a6:    f001fa23    ..#.    BL       start_i2c ; 0x24f0
        0x000010aa:    f1b03fff    ...?    CMP      r0,#0xffffffff
        0x000010ae:    dd23        #.      BLE      0x10f8 ; GT9XX_WriteData + 92
        0x000010b0:    20ba        .       MOVS     r0,#0xba
        0x000010b2:    f001fb2d    ..-.    BL       write_i2c ; 0x2710
        0x000010b6:    2800        .(      CMP      r0,#0
        0x000010b8:    d423        #.      BMI      0x1102 ; GT9XX_WriteData + 102
        0x000010ba:    2801        .(      CMP      r0,#1
        0x000010bc:    d021        !.      BEQ      0x1102 ; GT9XX_WriteData + 102
        0x000010be:    0a28        (.      LSRS     r0,r5,#8
        0x000010c0:    f001fb26    ..&.    BL       write_i2c ; 0x2710
        0x000010c4:    2800        .(      CMP      r0,#0
        0x000010c6:    d421        !.      BMI      0x110c ; GT9XX_WriteData + 112
        0x000010c8:    2801        .(      CMP      r0,#1
        0x000010ca:    d01f        ..      BEQ      0x110c ; GT9XX_WriteData + 112
        0x000010cc:    b2e8        ..      UXTB     r0,r5
        0x000010ce:    f001fb1f    ....    BL       write_i2c ; 0x2710
        0x000010d2:    2800        .(      CMP      r0,#0
        0x000010d4:    d41f        ..      BMI      0x1116 ; GT9XX_WriteData + 122
        0x000010d6:    2801        .(      CMP      r0,#1
        0x000010d8:    d01d        ..      BEQ      0x1116 ; GT9XX_WriteData + 122
        0x000010da:    4620         F      MOV      r0,r4
        0x000010dc:    f001fb18    ....    BL       write_i2c ; 0x2710
        0x000010e0:    4604        .F      MOV      r4,r0
        0x000010e2:    f001fa8f    ....    BL       stop_i2c ; 0x2604
        0x000010e6:    f64f30df    O..0    MOV      r0,#0xfbdf
        0x000010ea:    2c01        .,      CMP      r4,#1
        0x000010ec:    bf18        ..      IT       NE
        0x000010ee:    2000        .       MOVNE    r0,#0
        0x000010f0:    2c00        .,      CMP      r4,#0
        0x000010f2:    bf48        H.      IT       MI
        0x000010f4:    4630        0F      MOVMI    r0,r6
        0x000010f6:    e011        ..      B        0x111c ; GT9XX_WriteData + 128
        0x000010f8:    f001fa84    ....    BL       stop_i2c ; 0x2604
        0x000010fc:    f106001c    ....    ADD      r0,r6,#0x1c
        0x00001100:    e00c        ..      B        0x111c ; GT9XX_WriteData + 128
        0x00001102:    f001fa7f    ....    BL       stop_i2c ; 0x2604
        0x00001106:    f1060015    ....    ADD      r0,r6,#0x15
        0x0000110a:    e007        ..      B        0x111c ; GT9XX_WriteData + 128
        0x0000110c:    f001fa7a    ..z.    BL       stop_i2c ; 0x2604
        0x00001110:    f106000e    ....    ADD      r0,r6,#0xe
        0x00001114:    e002        ..      B        0x111c ; GT9XX_WriteData + 128
        0x00001116:    f001fa75    ..u.    BL       stop_i2c ; 0x2604
        0x0000111a:    1df0        ..      ADDS     r0,r6,#7
        0x0000111c:    b200        ..      SXTH     r0,r0
        0x0000111e:    bd70        p.      POP      {r4-r6,pc}
    LCD_DrawLine
        0x00001120:    e92d4ff0    -..O    PUSH     {r4-r11,lr}
        0x00001124:    b083        ..      SUB      sp,sp,#0xc
        0x00001126:    1a16        ..      SUBS     r6,r2,r0
        0x00001128:    eba30301    ....    SUB      r3,r3,r1
        0x0000112c:    4632        2F      MOV      r2,r6
        0x0000112e:    4634        4F      MOV      r4,r6
        0x00001130:    bf18        ..      IT       NE
        0x00001132:    f04f32ff    O..2    MOVNE    r2,#0xffffffff
        0x00001136:    bf48        H.      IT       MI
        0x00001138:    4274        tB      RSBMI    r4,r6,#0
        0x0000113a:    2e00        ..      CMP      r6,#0
        0x0000113c:    461f        .F      MOV      r7,r3
        0x0000113e:    bfc8        ..      IT       GT
        0x00001140:    2201        ."      MOVGT    r2,#1
        0x00001142:    2b00        .+      CMP      r3,#0
        0x00001144:    bf18        ..      IT       NE
        0x00001146:    f04f37ff    O..7    MOVNE    r7,#0xffffffff
        0x0000114a:    9302        ..      STR      r3,[sp,#8]
        0x0000114c:    bf44        D.      ITT      MI
        0x0000114e:    425e        ^B      RSBMI    r6,r3,#0
        0x00001150:    9602        ..      STRMI    r6,[sp,#8]
        0x00001152:    2b00        .+      CMP      r3,#0
        0x00001154:    bfc8        ..      IT       GT
        0x00001156:    2701        .'      MOVGT    r7,#1
        0x00001158:    9d02        ..      LDR      r5,[sp,#8]
        0x0000115a:    f2400904    @...    MOVW     r9,#4
        0x0000115e:    42ac        .B      CMP      r4,r5
        0x00001160:    bfc8        ..      IT       GT
        0x00001162:    4625        %F      MOVGT    r5,r4
        0x00001164:    f2ca0900    ....    MOVT     r9,#0xa000
        0x00001168:    9500        ..      STR      r5,[sp,#0]
        0x0000116a:    1c6b        k.      ADDS     r3,r5,#1
        0x0000116c:    f04f0a00    O...    MOV      r10,#0
        0x00001170:    f04f0800    O...    MOV      r8,#0
        0x00001174:    f04f0b00    O...    MOV      r11,#0
        0x00001178:    f04f4520    O. E    MOV      r5,#0xa0000000
        0x0000117c:    9301        ..      STR      r3,[sp,#4]
        0x0000117e:    bf00        ..      NOP      
        0x00001180:    f2400300    @...    MOVW     r3,#0
        0x00001184:    f2c20300    ....    MOVT     r3,#0x2000
        0x00001188:    f8d3c000    ....    LDR      r12,[r3,#0]
        0x0000118c:    f3c02e07    ....    UBFX     lr,r0,#8,#8
        0x00001190:    232a        *#      MOVS     r3,#0x2a
        0x00001192:    602b        +`      STR      r3,[r5,#0]
        0x00001194:    b2c3        ..      UXTB     r3,r0
        0x00001196:    f8c9e000    ....    STR      lr,[r9,#0]
        0x0000119a:    f8c93000    ...0    STR      r3,[r9,#0]
        0x0000119e:    2301        .#      MOVS     r3,#1
        0x000011a0:    f8c93000    ...0    STR      r3,[r9,#0]
        0x000011a4:    233f        ?#      MOVS     r3,#0x3f
        0x000011a6:    f8c93000    ...0    STR      r3,[r9,#0]
        0x000011aa:    f3c12307    ...#    UBFX     r3,r1,#8,#8
        0x000011ae:    262b        +&      MOVS     r6,#0x2b
        0x000011b0:    602e        .`      STR      r6,[r5,#0]
        0x000011b2:    f8c93000    ...0    STR      r3,[r9,#0]
        0x000011b6:    b2cb        ..      UXTB     r3,r1
        0x000011b8:    f8c93000    ...0    STR      r3,[r9,#0]
        0x000011bc:    9e02        ..      LDR      r6,[sp,#8]
        0x000011be:    eb080304    ....    ADD      r3,r8,r4
        0x000011c2:    eb0a0e06    ....    ADD      lr,r10,r6
        0x000011c6:    9e00        ..      LDR      r6,[sp,#0]
        0x000011c8:    f10b0b01    ....    ADD      r11,r11,#1
        0x000011cc:    ebb30806    ....    SUBS     r8,r3,r6
        0x000011d0:    bfd4        ..      ITE      LE
        0x000011d2:    4698        .F      MOVLE    r8,r3
        0x000011d4:    4410        .D      ADDGT    r0,r2
        0x000011d6:    ebbe0a06    ....    SUBS     r10,lr,r6
        0x000011da:    bfd8        ..      IT       LE
        0x000011dc:    46f2        .F      MOVLE    r10,lr
        0x000011de:    fa1ff38b    ....    UXTH     r3,r11
        0x000011e2:    bfc8        ..      IT       GT
        0x000011e4:    4439        9D      ADDGT    r1,r7
        0x000011e6:    9e01        ..      LDR      r6,[sp,#4]
        0x000011e8:    429e        .B      CMP      r6,r3
        0x000011ea:    f04f0301    O...    MOV      r3,#1
        0x000011ee:    f8c93000    ...0    STR      r3,[r9,#0]
        0x000011f2:    f04f03df    O...    MOV      r3,#0xdf
        0x000011f6:    f8c93000    ...0    STR      r3,[r9,#0]
        0x000011fa:    f04f032c    O.,.    MOV      r3,#0x2c
        0x000011fe:    602b        +`      STR      r3,[r5,#0]
        0x00001200:    f8c9c000    ....    STR      r12,[r9,#0]
        0x00001204:    d2bc        ..      BCS      0x1180 ; LCD_DrawLine + 96
        0x00001206:    b003        ..      ADD      sp,sp,#0xc
        0x00001208:    e8bd8ff0    ....    POP      {r4-r11,pc}
    LCD_DrawPoint_color
        0x0000120c:    b580        ..      PUSH     {r7,lr}
        0x0000120e:    f04f4c20    O. L    MOV      r12,#0xa0000000
        0x00001212:    232a        *#      MOVS     r3,#0x2a
        0x00001214:    f8cc3000    ...0    STR      r3,[r12,#0]
        0x00001218:    2304        .#      MOVS     r3,#4
        0x0000121a:    ea4f2e10    O...    LSR      lr,r0,#8
        0x0000121e:    f2ca0300    ....    MOVT     r3,#0xa000
        0x00001222:    b2c0        ..      UXTB     r0,r0
        0x00001224:    f8c3e000    ....    STR      lr,[r3,#0]
        0x00001228:    6018        .`      STR      r0,[r3,#0]
        0x0000122a:    f04f0e01    O...    MOV      lr,#1
        0x0000122e:    203f        ?       MOVS     r0,#0x3f
        0x00001230:    f8c3e000    ....    STR      lr,[r3,#0]
        0x00001234:    6018        .`      STR      r0,[r3,#0]
        0x00001236:    202b        +       MOVS     r0,#0x2b
        0x00001238:    f8cc0000    ....    STR      r0,[r12,#0]
        0x0000123c:    0a08        ..      LSRS     r0,r1,#8
        0x0000123e:    6018        .`      STR      r0,[r3,#0]
        0x00001240:    b2c8        ..      UXTB     r0,r1
        0x00001242:    6018        .`      STR      r0,[r3,#0]
        0x00001244:    20df        .       MOVS     r0,#0xdf
        0x00001246:    f8c3e000    ....    STR      lr,[r3,#0]
        0x0000124a:    6018        .`      STR      r0,[r3,#0]
        0x0000124c:    202c        ,       MOVS     r0,#0x2c
        0x0000124e:    f8cc0000    ....    STR      r0,[r12,#0]
        0x00001252:    601a        .`      STR      r2,[r3,#0]
        0x00001254:    bd80        ..      POP      {r7,pc}
        0x00001256:    0000        ..      MOVS     r0,r0
    LCD_Draw_Circle
        0x00001258:    e92d4ff0    -..O    PUSH     {r4-r11,lr}
        0x0000125c:    b08a        ..      SUB      sp,sp,#0x28
        0x0000125e:    9008        ..      STR      r0,[sp,#0x20]
        0x00001260:    2003        .       MOVS     r0,#3
        0x00001262:    eba00442    ..B.    SUB      r4,r0,r2,LSL #1
        0x00001266:    2704        .'      MOVS     r7,#4
        0x00001268:    f04f30ff    O..0    MOV      r0,#0xffffffff
        0x0000126c:    f04f090a    O...    MOV      r9,#0xa
        0x00001270:    f04f4b20    O. K    MOV      r11,#0xa0000000
        0x00001274:    f2ca0700    ....    MOVT     r7,#0xa000
        0x00001278:    f04f0e01    O...    MOV      lr,#1
        0x0000127c:    9100        ..      STR      r1,[sp,#0]
        0x0000127e:    bf00        ..      NOP      
        0x00001280:    3001        .0      ADDS     r0,#1
        0x00001282:    9009        ..      STR      r0,[sp,#0x24]
        0x00001284:    e9dd1008    ....    LDRD     r1,r0,[sp,#0x20]
        0x00001288:    9407        ..      STR      r4,[sp,#0x1c]
        0x0000128a:    460b        .F      MOV      r3,r1
        0x0000128c:    f8dda000    ....    LDR      r10,[sp,#0]
        0x00001290:    4408        .D      ADD      r0,r0,r1
        0x00001292:    f2400100    @...    MOVW     r1,#0
        0x00001296:    b284        ..      UXTH     r4,r0
        0x00001298:    f2c20100    ....    MOVT     r1,#0x2000
        0x0000129c:    f8d18000    ....    LDR      r8,[r1,#0]
        0x000012a0:    460d        .F      MOV      r5,r1
        0x000012a2:    212a        *!      MOVS     r1,#0x2a
        0x000012a4:    ebaa0602    ....    SUB      r6,r10,r2
        0x000012a8:    f8cb1000    ....    STR      r1,[r11,#0]
        0x000012ac:    0a21        !.      LSRS     r1,r4,#8
        0x000012ae:    b2c0        ..      UXTB     r0,r0
        0x000012b0:    fa1ffc86    ....    UXTH     r12,r6
        0x000012b4:    9102        ..      STR      r1,[sp,#8]
        0x000012b6:    6039        9`      STR      r1,[r7,#0]
        0x000012b8:    9001        ..      STR      r0,[sp,#4]
        0x000012ba:    6038        8`      STR      r0,[r7,#0]
        0x000012bc:    203f        ?       MOVS     r0,#0x3f
        0x000012be:    f8c7e000    ....    STR      lr,[r7,#0]
        0x000012c2:    6038        8`      STR      r0,[r7,#0]
        0x000012c4:    202b        +       MOVS     r0,#0x2b
        0x000012c6:    f8cb0000    ....    STR      r0,[r11,#0]
        0x000012ca:    ea4f201c    O..     LSR      r0,r12,#8
        0x000012ce:    9006        ..      STR      r0,[sp,#0x18]
        0x000012d0:    6038        8`      STR      r0,[r7,#0]
        0x000012d2:    b2f0        ..      UXTB     r0,r6
        0x000012d4:    9005        ..      STR      r0,[sp,#0x14]
        0x000012d6:    6038        8`      STR      r0,[r7,#0]
        0x000012d8:    20df        .       MOVS     r0,#0xdf
        0x000012da:    f8c7e000    ....    STR      lr,[r7,#0]
        0x000012de:    6038        8`      STR      r0,[r7,#0]
        0x000012e0:    202c        ,       MOVS     r0,#0x2c
        0x000012e2:    f8cb0000    ....    STR      r0,[r11,#0]
        0x000012e6:    f8c78000    ....    STR      r8,[r7,#0]
        0x000012ea:    18d0        ..      ADDS     r0,r2,r3
        0x000012ec:    9b09        ..      LDR      r3,[sp,#0x24]
        0x000012ee:    b281        ..      UXTH     r1,r0
        0x000012f0:    ebaa0603    ....    SUB      r6,r10,r3
        0x000012f4:    fa1ff886    ....    UXTH     r8,r6
        0x000012f8:    462b        +F      MOV      r3,r5
        0x000012fa:    f8d5c000    ....    LDR      r12,[r5,#0]
        0x000012fe:    252a        *%      MOVS     r5,#0x2a
        0x00001300:    242b        +$      MOVS     r4,#0x2b
        0x00001302:    f8cb5000    ...P    STR      r5,[r11,#0]
        0x00001306:    0a09        ..      LSRS     r1,r1,#8
        0x00001308:    b2c0        ..      UXTB     r0,r0
        0x0000130a:    253f        ?%      MOVS     r5,#0x3f
        0x0000130c:    6039        9`      STR      r1,[r7,#0]
        0x0000130e:    6038        8`      STR      r0,[r7,#0]
        0x00001310:    f8c7e000    ....    STR      lr,[r7,#0]
        0x00001314:    603d        =`      STR      r5,[r7,#0]
        0x00001316:    f8cb4000    ...@    STR      r4,[r11,#0]
        0x0000131a:    ea4f2418    O..$    LSR      r4,r8,#8
        0x0000131e:    9404        ..      STR      r4,[sp,#0x10]
        0x00001320:    603c        <`      STR      r4,[r7,#0]
        0x00001322:    b2f4        ..      UXTB     r4,r6
        0x00001324:    9403        ..      STR      r4,[sp,#0xc]
        0x00001326:    603c        <`      STR      r4,[r7,#0]
        0x00001328:    24df        .$      MOVS     r4,#0xdf
        0x0000132a:    f8c7e000    ....    STR      lr,[r7,#0]
        0x0000132e:    603c        <`      STR      r4,[r7,#0]
        0x00001330:    242c        ,$      MOVS     r4,#0x2c
        0x00001332:    f8cb4000    ...@    STR      r4,[r11,#0]
        0x00001336:    f8c7c000    ....    STR      r12,[r7,#0]
        0x0000133a:    9e09        ..      LDR      r6,[sp,#0x24]
        0x0000133c:    252a        *%      MOVS     r5,#0x2a
        0x0000133e:    4456        VD      ADD      r6,r6,r10
        0x00001340:    fa1ffc86    ....    UXTH     r12,r6
        0x00001344:    681c        .h      LDR      r4,[r3,#0]
        0x00001346:    f8cb5000    ...P    STR      r5,[r11,#0]
        0x0000134a:    6039        9`      STR      r1,[r7,#0]
        0x0000134c:    6038        8`      STR      r0,[r7,#0]
        0x0000134e:    203f        ?       MOVS     r0,#0x3f
        0x00001350:    252b        +%      MOVS     r5,#0x2b
        0x00001352:    ea4f281c    O..(    LSR      r8,r12,#8
        0x00001356:    fa5ffc86    _...    UXTB     r12,r6
        0x0000135a:    21df        .!      MOVS     r1,#0xdf
        0x0000135c:    f8c7e000    ....    STR      lr,[r7,#0]
        0x00001360:    6038        8`      STR      r0,[r7,#0]
        0x00001362:    f8cb5000    ...P    STR      r5,[r11,#0]
        0x00001366:    f8c78000    ....    STR      r8,[r7,#0]
        0x0000136a:    f8c7c000    ....    STR      r12,[r7,#0]
        0x0000136e:    f8c7e000    ....    STR      lr,[r7,#0]
        0x00001372:    6039        9`      STR      r1,[r7,#0]
        0x00001374:    212c        ,!      MOVS     r1,#0x2c
        0x00001376:    f8cb1000    ....    STR      r1,[r11,#0]
        0x0000137a:    603c        <`      STR      r4,[r7,#0]
        0x0000137c:    681c        .h      LDR      r4,[r3,#0]
        0x0000137e:    232a        *#      MOVS     r3,#0x2a
        0x00001380:    f8cb3000    ...0    STR      r3,[r11,#0]
        0x00001384:    9b02        ..      LDR      r3,[sp,#8]
        0x00001386:    eb02010a    ....    ADD      r1,r2,r10
        0x0000138a:    603b        ;`      STR      r3,[r7,#0]
        0x0000138c:    b28e        ..      UXTH     r6,r1
        0x0000138e:    9b01        ..      LDR      r3,[sp,#4]
        0x00001390:    b2c9        ..      UXTB     r1,r1
        0x00001392:    603b        ;`      STR      r3,[r7,#0]
        0x00001394:    f8c7e000    ....    STR      lr,[r7,#0]
        0x00001398:    6038        8`      STR      r0,[r7,#0]
        0x0000139a:    0a30        0.      LSRS     r0,r6,#8
        0x0000139c:    23df        .#      MOVS     r3,#0xdf
        0x0000139e:    f8cb5000    ...P    STR      r5,[r11,#0]
        0x000013a2:    6038        8`      STR      r0,[r7,#0]
        0x000013a4:    6039        9`      STR      r1,[r7,#0]
        0x000013a6:    f8c7e000    ....    STR      lr,[r7,#0]
        0x000013aa:    603b        ;`      STR      r3,[r7,#0]
        0x000013ac:    232c        ,#      MOVS     r3,#0x2c
        0x000013ae:    f8cb3000    ...0    STR      r3,[r11,#0]
        0x000013b2:    603c        <`      STR      r4,[r7,#0]
        0x000013b4:    e9dd3408    ...4    LDRD     r3,r4,[sp,#0x20]
        0x000013b8:    f2400500    @...    MOVW     r5,#0
        0x000013bc:    f2c20500    ....    MOVT     r5,#0x2000
        0x000013c0:    f8d5a000    ....    LDR      r10,[r5,#0]
        0x000013c4:    1b1e        ..      SUBS     r6,r3,r4
        0x000013c6:    b2b4        ..      UXTH     r4,r6
        0x000013c8:    252a        *%      MOVS     r5,#0x2a
        0x000013ca:    f8cb5000    ...P    STR      r5,[r11,#0]
        0x000013ce:    0a24        $.      LSRS     r4,r4,#8
        0x000013d0:    b2f6        ..      UXTB     r6,r6
        0x000013d2:    253f        ?%      MOVS     r5,#0x3f
        0x000013d4:    603c        <`      STR      r4,[r7,#0]
        0x000013d6:    603e        >`      STR      r6,[r7,#0]
        0x000013d8:    f8c7e000    ....    STR      lr,[r7,#0]
        0x000013dc:    603d        =`      STR      r5,[r7,#0]
        0x000013de:    252b        +%      MOVS     r5,#0x2b
        0x000013e0:    f8cb5000    ...P    STR      r5,[r11,#0]
        0x000013e4:    6038        8`      STR      r0,[r7,#0]
        0x000013e6:    20df        .       MOVS     r0,#0xdf
        0x000013e8:    6039        9`      STR      r1,[r7,#0]
        0x000013ea:    f8c7e000    ....    STR      lr,[r7,#0]
        0x000013ee:    6038        8`      STR      r0,[r7,#0]
        0x000013f0:    202c        ,       MOVS     r0,#0x2c
        0x000013f2:    f8cb0000    ....    STR      r0,[r11,#0]
        0x000013f6:    1a98        ..      SUBS     r0,r3,r2
        0x000013f8:    f8c7a000    ....    STR      r10,[r7,#0]
        0x000013fc:    b281        ..      UXTH     r1,r0
        0x000013fe:    f2400a00    @...    MOVW     r10,#0
        0x00001402:    f2c20a00    ....    MOVT     r10,#0x2000
        0x00001406:    252a        *%      MOVS     r5,#0x2a
        0x00001408:    f8da3000    ...0    LDR      r3,[r10,#0]
        0x0000140c:    f8cb5000    ...P    STR      r5,[r11,#0]
        0x00001410:    0a09        ..      LSRS     r1,r1,#8
        0x00001412:    b2c0        ..      UXTB     r0,r0
        0x00001414:    253f        ?%      MOVS     r5,#0x3f
        0x00001416:    6039        9`      STR      r1,[r7,#0]
        0x00001418:    6038        8`      STR      r0,[r7,#0]
        0x0000141a:    f8c7e000    ....    STR      lr,[r7,#0]
        0x0000141e:    603d        =`      STR      r5,[r7,#0]
        0x00001420:    252b        +%      MOVS     r5,#0x2b
        0x00001422:    f8cb5000    ...P    STR      r5,[r11,#0]
        0x00001426:    f8c78000    ....    STR      r8,[r7,#0]
        0x0000142a:    f04f08df    O...    MOV      r8,#0xdf
        0x0000142e:    252c        ,%      MOVS     r5,#0x2c
        0x00001430:    f8c7c000    ....    STR      r12,[r7,#0]
        0x00001434:    f8c7e000    ....    STR      lr,[r7,#0]
        0x00001438:    f8c78000    ....    STR      r8,[r7,#0]
        0x0000143c:    f8cb5000    ...P    STR      r5,[r11,#0]
        0x00001440:    603b        ;`      STR      r3,[r7,#0]
        0x00001442:    232a        *#      MOVS     r3,#0x2a
        0x00001444:    f8dac000    ....    LDR      r12,[r10,#0]
        0x00001448:    f8cb3000    ...0    STR      r3,[r11,#0]
        0x0000144c:    603c        <`      STR      r4,[r7,#0]
        0x0000144e:    243f        ?$      MOVS     r4,#0x3f
        0x00001450:    603e        >`      STR      r6,[r7,#0]
        0x00001452:    f8c7e000    ....    STR      lr,[r7,#0]
        0x00001456:    603c        <`      STR      r4,[r7,#0]
        0x00001458:    242b        +$      MOVS     r4,#0x2b
        0x0000145a:    f8cb4000    ...@    STR      r4,[r11,#0]
        0x0000145e:    9c06        ..      LDR      r4,[sp,#0x18]
        0x00001460:    252c        ,%      MOVS     r5,#0x2c
        0x00001462:    603c        <`      STR      r4,[r7,#0]
        0x00001464:    9c05        ..      LDR      r4,[sp,#0x14]
        0x00001466:    232a        *#      MOVS     r3,#0x2a
        0x00001468:    603c        <`      STR      r4,[r7,#0]
        0x0000146a:    f8c7e000    ....    STR      lr,[r7,#0]
        0x0000146e:    f8c78000    ....    STR      r8,[r7,#0]
        0x00001472:    f8cb5000    ...P    STR      r5,[r11,#0]
        0x00001476:    f8c7c000    ....    STR      r12,[r7,#0]
        0x0000147a:    9c07        ..      LDR      r4,[sp,#0x1c]
        0x0000147c:    f8da6000    ...`    LDR      r6,[r10,#0]
        0x00001480:    f8cb3000    ...0    STR      r3,[r11,#0]
        0x00001484:    6039        9`      STR      r1,[r7,#0]
        0x00001486:    6038        8`      STR      r0,[r7,#0]
        0x00001488:    203f        ?       MOVS     r0,#0x3f
        0x0000148a:    f8c7e000    ....    STR      lr,[r7,#0]
        0x0000148e:    6038        8`      STR      r0,[r7,#0]
        0x00001490:    202b        +       MOVS     r0,#0x2b
        0x00001492:    f8cb0000    ....    STR      r0,[r11,#0]
        0x00001496:    9804        ..      LDR      r0,[sp,#0x10]
        0x00001498:    f04f08df    O...    MOV      r8,#0xdf
        0x0000149c:    6038        8`      STR      r0,[r7,#0]
        0x0000149e:    9803        ..      LDR      r0,[sp,#0xc]
        0x000014a0:    252c        ,%      MOVS     r5,#0x2c
        0x000014a2:    6038        8`      STR      r0,[r7,#0]
        0x000014a4:    eba90082    ....    SUB      r0,r9,r2,LSL #2
        0x000014a8:    43e1        .C      MVNS     r1,r4
        0x000014aa:    f8c7e000    ....    STR      lr,[r7,#0]
        0x000014ae:    f8c78000    ....    STR      r8,[r7,#0]
        0x000014b2:    f8cb5000    ...P    STR      r5,[r11,#0]
        0x000014b6:    603e        >`      STR      r6,[r7,#0]
        0x000014b8:    eb0272e1    ...r    ADD      r2,r2,r1,ASR #31
        0x000014bc:    2c00        .,      CMP      r4,#0
        0x000014be:    f1090104    ....    ADD      r1,r9,#4
        0x000014c2:    bf58        X.      IT       PL
        0x000014c4:    f1000904    ....    ADDPL    r9,r0,#4
        0x000014c8:    9809        ..      LDR      r0,[sp,#0x24]
        0x000014ca:    444c        LD      ADD      r4,r4,r9
        0x000014cc:    4290        .B      CMP      r0,r2
        0x000014ce:    4689        .F      MOV      r9,r1
        0x000014d0:    f6ffaed6    ....    BLT      0x1280 ; LCD_Draw_Circle + 40
        0x000014d4:    b00a        ..      ADD      sp,sp,#0x28
        0x000014d6:    e8bd8ff0    ....    POP      {r4-r11,pc}
        0x000014da:    0000        ..      MOVS     r0,r0
    LCD_Init
        0x000014dc:    e92d4ff0    -..O    PUSH     {r4-r11,lr}
        0x000014e0:    b081        ..      SUB      sp,sp,#4
        0x000014e2:    2400        .$      MOVS     r4,#0
        0x000014e4:    f2c40401    ....    MOVT     r4,#0x4001
        0x000014e8:    2504        .%      MOVS     r5,#4
        0x000014ea:    4620         F      MOV      r0,r4
        0x000014ec:    2111        .!      MOVS     r1,#0x11
        0x000014ee:    f2ca0500    ....    MOVT     r5,#0xa000
        0x000014f2:    f04f0911    O...    MOV      r9,#0x11
        0x000014f6:    f7fffc48    ..H.    BL       GPIO_ResetBit ; 0xd8a
        0x000014fa:    200a        .       MOVS     r0,#0xa
        0x000014fc:    f04f080a    O...    MOV      r8,#0xa
        0x00001500:    f000fdda    ....    BL       delay_ms ; 0x20b8
        0x00001504:    4620         F      MOV      r0,r4
        0x00001506:    2111        .!      MOVS     r1,#0x11
        0x00001508:    f7fffc4b    ..K.    BL       GPIO_SetBit ; 0xda2
        0x0000150c:    200a        .       MOVS     r0,#0xa
        0x0000150e:    f000fdd3    ....    BL       delay_ms ; 0x20b8
        0x00001512:    f04f0b01    O...    MOV      r11,#1
        0x00001516:    2602        .&      MOVS     r6,#2
        0x00001518:    2024        $       MOVS     r0,#0x24
        0x0000151a:    f885b005    ....    STRB     r11,[r5,#5]
        0x0000151e:    71ae        .q      STRB     r6,[r5,#6]
        0x00001520:    71ee        .q      STRB     r6,[r5,#7]
        0x00001522:    7228        (r      STRB     r0,[r5,#8]
        0x00001524:    f04f4720    O. G    MOV      r7,#0xa0000000
        0x00001528:    20d3        .       MOVS     r0,#0xd3
        0x0000152a:    f8858009    ....    STRB     r8,[r5,#9]
        0x0000152e:    f885b004    ....    STRB     r11,[r5,#4]
        0x00001532:    6038        8`      STR      r0,[r7,#0]
        0x00001534:    6828        (h      LDR      r0,[r5,#0]
        0x00001536:    6828        (h      LDR      r0,[r5,#0]
        0x00001538:    6828        (h      LDR      r0,[r5,#0]
        0x0000153a:    6829        )h      LDR      r1,[r5,#0]
        0x0000153c:    ea412000    A..     ORR      r0,r1,r0,LSL #8
        0x00001540:    b281        ..      UXTH     r1,r0
        0x00001542:    a058        X.      ADR      r0,{pc}+0x162 ; 0x16a4
        0x00001544:    f7fffa6e    ..n.    BL       __2printf ; 0xa24
        0x00001548:    20f7        .       MOVS     r0,#0xf7
        0x0000154a:    6038        8`      STR      r0,[r7,#0]
        0x0000154c:    20a9        .       MOVS     r0,#0xa9
        0x0000154e:    6028        (`      STR      r0,[r5,#0]
        0x00001550:    2051        Q       MOVS     r0,#0x51
        0x00001552:    6028        (`      STR      r0,[r5,#0]
        0x00001554:    202c        ,       MOVS     r0,#0x2c
        0x00001556:    6028        (`      STR      r0,[r5,#0]
        0x00001558:    2082        .       MOVS     r0,#0x82
        0x0000155a:    6028        (`      STR      r0,[r5,#0]
        0x0000155c:    20c0        .       MOVS     r0,#0xc0
        0x0000155e:    f04f0c09    O...    MOV      r12,#9
        0x00001562:    21c1        .!      MOVS     r1,#0xc1
        0x00001564:    6038        8`      STR      r0,[r7,#0]
        0x00001566:    f8c59000    ....    STR      r9,[r5,#0]
        0x0000156a:    f8c5c000    ....    STR      r12,[r5,#0]
        0x0000156e:    6039        9`      STR      r1,[r7,#0]
        0x00001570:    2241        A"      MOVS     r2,#0x41
        0x00001572:    21c5        .!      MOVS     r1,#0xc5
        0x00001574:    602a        *`      STR      r2,[r5,#0]
        0x00001576:    6039        9`      STR      r1,[r7,#0]
        0x00001578:    f04f0a00    O...    MOV      r10,#0
        0x0000157c:    2180        .!      MOVS     r1,#0x80
        0x0000157e:    f8c5a000    ....    STR      r10,[r5,#0]
        0x00001582:    f8c58000    ....    STR      r8,[r5,#0]
        0x00001586:    6029        )`      STR      r1,[r5,#0]
        0x00001588:    21b1        .!      MOVS     r1,#0xb1
        0x0000158a:    6039        9`      STR      r1,[r7,#0]
        0x0000158c:    21b0        .!      MOVS     r1,#0xb0
        0x0000158e:    6029        )`      STR      r1,[r5,#0]
        0x00001590:    21b4        .!      MOVS     r1,#0xb4
        0x00001592:    f8c59000    ....    STR      r9,[r5,#0]
        0x00001596:    6039        9`      STR      r1,[r7,#0]
        0x00001598:    21b6        .!      MOVS     r1,#0xb6
        0x0000159a:    602e        .`      STR      r6,[r5,#0]
        0x0000159c:    6039        9`      STR      r1,[r7,#0]
        0x0000159e:    2122        "!      MOVS     r1,#0x22
        0x000015a0:    602e        .`      STR      r6,[r5,#0]
        0x000015a2:    6029        )`      STR      r1,[r5,#0]
        0x000015a4:    21b7        .!      MOVS     r1,#0xb7
        0x000015a6:    6039        9`      STR      r1,[r7,#0]
        0x000015a8:    21c6        .!      MOVS     r1,#0xc6
        0x000015aa:    6029        )`      STR      r1,[r5,#0]
        0x000015ac:    21be        .!      MOVS     r1,#0xbe
        0x000015ae:    6039        9`      STR      r1,[r7,#0]
        0x000015b0:    2304        .#      MOVS     r3,#4
        0x000015b2:    21e9        .!      MOVS     r1,#0xe9
        0x000015b4:    f04f0e36    O.6.    MOV      lr,#0x36
        0x000015b8:    2408        .$      MOVS     r4,#8
        0x000015ba:    f8c5a000    ....    STR      r10,[r5,#0]
        0x000015be:    602b        +`      STR      r3,[r5,#0]
        0x000015c0:    6039        9`      STR      r1,[r7,#0]
        0x000015c2:    f8c5a000    ....    STR      r10,[r5,#0]
        0x000015c6:    f8c7e000    ....    STR      lr,[r7,#0]
        0x000015ca:    602c        ,`      STR      r4,[r5,#0]
        0x000015cc:    243a        :$      MOVS     r4,#0x3a
        0x000015ce:    603c        <`      STR      r4,[r7,#0]
        0x000015d0:    2455        U$      MOVS     r4,#0x55
        0x000015d2:    602c        ,`      STR      r4,[r5,#0]
        0x000015d4:    24e0        .$      MOVS     r4,#0xe0
        0x000015d6:    603c        <`      STR      r4,[r7,#0]
        0x000015d8:    2407        .$      MOVS     r4,#7
        0x000015da:    f8c5a000    ....    STR      r10,[r5,#0]
        0x000015de:    602c        ,`      STR      r4,[r5,#0]
        0x000015e0:    2410        .$      MOVS     r4,#0x10
        0x000015e2:    602c        ,`      STR      r4,[r5,#0]
        0x000015e4:    2417        .$      MOVS     r4,#0x17
        0x000015e6:    200b        .       MOVS     r0,#0xb
        0x000015e8:    f8c5c000    ....    STR      r12,[r5,#0]
        0x000015ec:    602c        ,`      STR      r4,[r5,#0]
        0x000015ee:    6028        (`      STR      r0,[r5,#0]
        0x000015f0:    2089        .       MOVS     r0,#0x89
        0x000015f2:    602a        *`      STR      r2,[r5,#0]
        0x000015f4:    6028        (`      STR      r0,[r5,#0]
        0x000015f6:    204b        K       MOVS     r0,#0x4b
        0x000015f8:    6028        (`      STR      r0,[r5,#0]
        0x000015fa:    200c        .       MOVS     r0,#0xc
        0x000015fc:    f8c58000    ....    STR      r8,[r5,#0]
        0x00001600:    6028        (`      STR      r0,[r5,#0]
        0x00001602:    200e        .       MOVS     r0,#0xe
        0x00001604:    2218        ."      MOVS     r2,#0x18
        0x00001606:    6028        (`      STR      r0,[r5,#0]
        0x00001608:    602a        *`      STR      r2,[r5,#0]
        0x0000160a:    221b        ."      MOVS     r2,#0x1b
        0x0000160c:    602a        *`      STR      r2,[r5,#0]
        0x0000160e:    220f        ."      MOVS     r2,#0xf
        0x00001610:    21e1        .!      MOVS     r1,#0xe1
        0x00001612:    602a        *`      STR      r2,[r5,#0]
        0x00001614:    6039        9`      STR      r1,[r7,#0]
        0x00001616:    211a        .!      MOVS     r1,#0x1a
        0x00001618:    f8c5a000    ....    STR      r10,[r5,#0]
        0x0000161c:    602c        ,`      STR      r4,[r5,#0]
        0x0000161e:    6029        )`      STR      r1,[r5,#0]
        0x00001620:    602b        +`      STR      r3,[r5,#0]
        0x00001622:    6028        (`      STR      r0,[r5,#0]
        0x00001624:    2006        .       MOVS     r0,#6
        0x00001626:    6028        (`      STR      r0,[r5,#0]
        0x00001628:    202f        /       MOVS     r0,#0x2f
        0x0000162a:    6028        (`      STR      r0,[r5,#0]
        0x0000162c:    2045        E       MOVS     r0,#0x45
        0x0000162e:    6028        (`      STR      r0,[r5,#0]
        0x00001630:    2043        C       MOVS     r0,#0x43
        0x00001632:    6028        (`      STR      r0,[r5,#0]
        0x00001634:    2032        2       MOVS     r0,#0x32
        0x00001636:    602e        .`      STR      r6,[r5,#0]
        0x00001638:    f8c58000    ....    STR      r8,[r5,#0]
        0x0000163c:    f8c5c000    ....    STR      r12,[r5,#0]
        0x00001640:    6028        (`      STR      r0,[r5,#0]
        0x00001642:    2064        d       MOVS     r0,#0x64
        0x00001644:    f8c5e000    ....    STR      lr,[r5,#0]
        0x00001648:    602a        *`      STR      r2,[r5,#0]
        0x0000164a:    f8c79000    ....    STR      r9,[r7,#0]
        0x0000164e:    f000fd33    ..3.    BL       delay_ms ; 0x20b8
        0x00001652:    2029        )       MOVS     r0,#0x29
        0x00001654:    6038        8`      STR      r0,[r7,#0]
        0x00001656:    2000        .       MOVS     r0,#0
        0x00001658:    f2c40001    ....    MOVT     r0,#0x4001
        0x0000165c:    2106        .!      MOVS     r1,#6
        0x0000165e:    f7fffba0    ....    BL       GPIO_SetBit ; 0xda2
        0x00001662:    202a        *       MOVS     r0,#0x2a
        0x00001664:    6038        8`      STR      r0,[r7,#0]
        0x00001666:    203f        ?       MOVS     r0,#0x3f
        0x00001668:    f8c5a000    ....    STR      r10,[r5,#0]
        0x0000166c:    f8c5a000    ....    STR      r10,[r5,#0]
        0x00001670:    f8c5b000    ....    STR      r11,[r5,#0]
        0x00001674:    6028        (`      STR      r0,[r5,#0]
        0x00001676:    202b        +       MOVS     r0,#0x2b
        0x00001678:    6038        8`      STR      r0,[r7,#0]
        0x0000167a:    20df        .       MOVS     r0,#0xdf
        0x0000167c:    f8c5a000    ....    STR      r10,[r5,#0]
        0x00001680:    f8c5a000    ....    STR      r10,[r5,#0]
        0x00001684:    f8c5b000    ....    STR      r11,[r5,#0]
        0x00001688:    6028        (`      STR      r0,[r5,#0]
        0x0000168a:    202c        ,       MOVS     r0,#0x2c
        0x0000168c:    6038        8`      STR      r0,[r7,#0]
        0x0000168e:    f44f3016    O..0    MOV      r0,#0x25800
        0x00001692:    f64f71ff    O..q    MOV      r1,#0xffff
        0x00001696:    bf00        ..      NOP      
        0x00001698:    3801        .8      SUBS     r0,#1
        0x0000169a:    6029        )`      STR      r1,[r5,#0]
        0x0000169c:    d1fc        ..      BNE      0x1698 ; LCD_Init + 444
        0x0000169e:    b001        ..      ADD      sp,sp,#4
        0x000016a0:    e8bd8ff0    ....    POP      {r4-r11,pc}
    $d.5
        0x000016a4:    44434c20     LCD    DCD    1145261088
        0x000016a8:    3a444920     ID:    DCD    977553696
        0x000016ac:    0a0d7825    %x..    DCD    168654885
        0x000016b0:    00000000    ....    DCD    0
    $t.0
    RCC_APB1PeriphResetCmd
        0x000016b4:    2900        .)      CMP      r1,#0
        0x000016b6:    f2430100    C...    MOVW     r1,#0x3000
        0x000016ba:    f2c40100    ....    MOVT     r1,#0x4000
        0x000016be:    680a        .h      LDR      r2,[r1,#0]
        0x000016c0:    bf0c        ..      ITE      EQ
        0x000016c2:    4310        .C      ORREQ    r0,r0,r2
        0x000016c4:    ea220000    "...    BICNE    r0,r2,r0
        0x000016c8:    6008        .`      STR      r0,[r1,#0]
        0x000016ca:    4770        pG      BX       lr
    SCD_CMD_CALL
        0x000016cc:    b5b0        ..      PUSH     {r4,r5,r7,lr}
        0x000016ce:    4604        .F      MOV      r4,r0
        0x000016d0:    6bc0        .k      LDR      r0,[r0,#0x3c]
        0x000016d2:    eb0000c2    ....    ADD      r0,r0,r2,LSL #3
        0x000016d6:    7900        .y      LDRB     r0,[r0,#4]
        0x000016d8:    2832        2(      CMP      r0,#0x32
        0x000016da:    bf18        ..      IT       NE
        0x000016dc:    bdb0        ..      POPNE    {r4,r5,r7,pc}
        0x000016de:    4608        .F      MOV      r0,r1
        0x000016e0:    2100        .!      MOVS     r1,#0
        0x000016e2:    4615        .F      MOV      r5,r2
        0x000016e4:    f000fc6a    ..j.    BL       _cz_strtoxl ; 0x1fbc
        0x000016e8:    6be1        .k      LDR      r1,[r4,#0x3c]
        0x000016ea:    f8511035    Q.5.    LDR      r1,[r1,r5,LSL #3]
        0x000016ee:    e8bd40b0    ...@    POP      {r4,r5,r7,lr}
        0x000016f2:    4708        .G      BX       r1
    SCD_CMD_CHG
        0x000016f4:    b510        ..      PUSH     {r4,lr}
        0x000016f6:    4604        .F      MOV      r4,r0
        0x000016f8:    4608        .F      MOV      r0,r1
        0x000016fa:    2100        .!      MOVS     r1,#0
        0x000016fc:    f000fc5e    ..^.    BL       _cz_strtoxl ; 0x1fbc
        0x00001700:    2804        .(      CMP      r0,#4
        0x00001702:    bf98        ..      IT       LS
        0x00001704:    f8a40050    ..P.    STRHLS   r0,[r4,#0x50]
        0x00001708:    bd10        ..      POP      {r4,pc}
    SCD_CMD_CONF
        0x0000170a:    b5b0        ..      PUSH     {r4,r5,r7,lr}
        0x0000170c:    b295        ..      UXTH     r5,r2
        0x0000170e:    2d13        .-      CMP      r5,#0x13
        0x00001710:    bf88        ..      IT       HI
        0x00001712:    bdb0        ..      POPHI    {r4,r5,r7,pc}
        0x00001714:    4604        .F      MOV      r4,r0
        0x00001716:    4608        .F      MOV      r0,r1
        0x00001718:    2100        .!      MOVS     r1,#0
        0x0000171a:    f000fc4f    ..O.    BL       _cz_strtoxl ; 0x1fbc
        0x0000171e:    f8240015    $...    STRH     r0,[r4,r5,LSL #1]
        0x00001722:    bdb0        ..      POP      {r4,r5,r7,pc}
    SCD_CMD_DUMP
        0x00001724:    b510        ..      PUSH     {r4,lr}
        0x00001726:    4604        .F      MOV      r4,r0
        0x00001728:    f8a0205a    ..Z     STRH     r2,[r0,#0x5a]
        0x0000172c:    4608        .F      MOV      r0,r1
        0x0000172e:    2100        .!      MOVS     r1,#0
        0x00001730:    f000fc44    ..D.    BL       _cz_strtoxl ; 0x1fbc
        0x00001734:    2801        .(      CMP      r0,#1
        0x00001736:    bfd8        ..      IT       LE
        0x00001738:    2001        .       MOVLE    r0,#1
        0x0000173a:    f5b04ffa    ...O    CMP      r0,#0x7d00
        0x0000173e:    bfa8        ..      IT       GE
        0x00001740:    f44f40fa    O..@    MOVGE    r0,#0x7d00
        0x00001744:    f8a4005c    ..\.    STRH     r0,[r4,#0x5c]
        0x00001748:    bd10        ..      POP      {r4,pc}
        0x0000174a:    0000        ..      MOVS     r0,r0
    SCD_CMD_SET
        0x0000174c:    e92d4ff0    -..O    PUSH     {r4-r11,lr}
        0x00001750:    b081        ..      SUB      sp,sp,#4
        0x00001752:    ed2d8b02    -...    VPUSH    {d8}
        0x00001756:    b082        ..      SUB      sp,sp,#8
        0x00001758:    f8d0b03c    ..<.    LDR      r11,[r0,#0x3c]
        0x0000175c:    4614        .F      MOV      r4,r2
        0x0000175e:    eb0b05c2    ....    ADD      r5,r11,r2,LSL #3
        0x00001762:    4689        .F      MOV      r9,r1
        0x00001764:    f8350f04    5...    LDRH     r0,[r5,#4]!
        0x00001768:    2824        $(      CMP      r0,#0x24
        0x0000176a:    d17d        }.      BNE      0x1868 ; SCD_CMD_SET + 284
        0x0000176c:    f8992000    ...     LDRB     r2,[r9,#0]
        0x00001770:    f64201ac    B...    MOV      r1,#0x28ac
        0x00001774:    f2c00100    ....    MOVT     r1,#0
        0x00001778:    f8513022    Q."0    LDR      r3,[r1,r2,LSL #2]
        0x0000177c:    f85ba034    [.4.    LDR      r10,[r11,r4,LSL #3]
        0x00001780:    2000        .       MOVS     r0,#0
        0x00001782:    075f        _.      LSLS     r7,r3,#29
        0x00001784:    9001        ..      STR      r0,[sp,#4]
        0x00001786:    f04f0601    O...    MOV      r6,#1
        0x0000178a:    4648        HF      MOV      r0,r9
        0x0000178c:    d10e        ..      BNE      0x17ac ; SCD_CMD_SET + 96
        0x0000178e:    bf00        ..      NOP      
        0x00001790:    06db        ..      LSLS     r3,r3,#27
        0x00001792:    d505        ..      BPL      0x17a0 ; SCD_CMD_SET + 84
        0x00001794:    b2d2        ..      UXTB     r2,r2
        0x00001796:    2a2b        +*      CMP      r2,#0x2b
        0x00001798:    d002        ..      BEQ      0x17a0 ; SCD_CMD_SET + 84
        0x0000179a:    2a2d        -*      CMP      r2,#0x2d
        0x0000179c:    d15f        _.      BNE      0x185e ; SCD_CMD_SET + 274
        0x0000179e:    4276        vB      RSBS     r6,r6,#0
        0x000017a0:    f8102f01    .../    LDRB     r2,[r0,#1]!
        0x000017a4:    f8513022    Q."0    LDR      r3,[r1,r2,LSL #2]
        0x000017a8:    075f        _.      LSLS     r7,r3,#29
        0x000017aa:    d0f1        ..      BEQ      0x1790 ; SCD_CMD_SET + 68
        0x000017ac:    a901        ..      ADD      r1,sp,#4
        0x000017ae:    f000fc05    ....    BL       _cz_strtoxl ; 0x1fbc
        0x000017b2:    9901        ..      LDR      r1,[sp,#4]
        0x000017b4:    4680        .F      MOV      r8,r0
        0x000017b6:    780a        .x      LDRB     r2,[r1,#0]
        0x000017b8:    2a2e        .*      CMP      r2,#0x2e
        0x000017ba:    d115        ..      BNE      0x17e8 ; SCD_CMD_SET + 156
        0x000017bc:    1c4f        O.      ADDS     r7,r1,#1
        0x000017be:    a901        ..      ADD      r1,sp,#4
        0x000017c0:    4638        8F      MOV      r0,r7
        0x000017c2:    f000fbfb    ....    BL       _cz_strtoxl ; 0x1fbc
        0x000017c6:    9901        ..      LDR      r1,[sp,#4]
        0x000017c8:    ee000a10    ....    VMOV     s0,r0
        0x000017cc:    1a7a        z.      SUBS     r2,r7,r1
        0x000017ce:    eeb88ac0    ....    VCVT.F32.S32 s16,s0
        0x000017d2:    2a01        .*      CMP      r2,#1
        0x000017d4:    db0b        ..      BLT      0x17ee ; SCD_CMD_SET + 162
        0x000017d6:    1c50        P.      ADDS     r0,r2,#1
        0x000017d8:    eeb20a04    ....    VMOV.F32 s0,#10.00000000
        0x000017dc:    ee288a00    (...    VMUL.F32 s16,s16,s0
        0x000017e0:    3801        .8      SUBS     r0,#1
        0x000017e2:    2801        .(      CMP      r0,#1
        0x000017e4:    dcfa        ..      BGT      0x17dc ; SCD_CMD_SET + 144
        0x000017e6:    e00d        ..      B        0x1804 ; SCD_CMD_SET + 184
        0x000017e8:    ed9f8a36    ..6.    VLDR     s16,[pc,#216] ; [0x18c4] = 0
        0x000017ec:    e00b        ..      B        0x1806 ; SCD_CMD_SET + 186
        0x000017ee:    f1b23fff    ...?    CMP      r2,#0xffffffff
        0x000017f2:    dc07        ..      BGT      0x1804 ; SCD_CMD_SET + 184
        0x000017f4:    ed9f0a34    ..4.    VLDR     s0,[pc,#208] ; [0x18c8] = 0x3dcccccd
        0x000017f8:    1bc8        ..      SUBS     r0,r1,r7
        0x000017fa:    bf00        ..      NOP      
        0x000017fc:    ee288a00    (...    VMUL.F32 s16,s16,s0
        0x00001800:    3801        .8      SUBS     r0,#1
        0x00001802:    d1fb        ..      BNE      0x17fc ; SCD_CMD_SET + 176
        0x00001804:    780a        .x      LDRB     r2,[r1,#0]
        0x00001806:    f0420020    B. .    ORR      r0,r2,#0x20
        0x0000180a:    2865        e(      CMP      r0,#0x65
        0x0000180c:    d104        ..      BNE      0x1818 ; SCD_CMD_SET + 204
        0x0000180e:    1c48        H.      ADDS     r0,r1,#1
        0x00001810:    a901        ..      ADD      r1,sp,#4
        0x00001812:    f000fbd3    ....    BL       _cz_strtoxl ; 0x1fbc
        0x00001816:    e000        ..      B        0x181a ; SCD_CMD_SET + 206
        0x00001818:    2000        .       MOVS     r0,#0
        0x0000181a:    ee008a10    ....    VMOV     s0,r8
        0x0000181e:    2e01        ..      CMP      r6,#1
        0x00001820:    eeb80ac0    ....    VCVT.F32.S32 s0,s0
        0x00001824:    ee380a00    8...    VADD.F32 s0,s16,s0
        0x00001828:    eeb11a40    ..@.    VNEG.F32 s2,s0
        0x0000182c:    fe000a01    ....    VSELEQ.F32 s0,s0,s2
        0x00001830:    2801        .(      CMP      r0,#1
        0x00001832:    db09        ..      BLT      0x1848 ; SCD_CMD_SET + 252
        0x00001834:    3001        .0      ADDS     r0,#1
        0x00001836:    eeb21a04    ....    VMOV.F32 s2,#10.00000000
        0x0000183a:    bf00        ..      NOP      
        0x0000183c:    ee200a01     ...    VMUL.F32 s0,s0,s2
        0x00001840:    3801        .8      SUBS     r0,#1
        0x00001842:    2801        .(      CMP      r0,#1
        0x00001844:    dcfa        ..      BGT      0x183c ; SCD_CMD_SET + 240
        0x00001846:    e00c        ..      B        0x1862 ; SCD_CMD_SET + 278
        0x00001848:    f1b03fff    ...?    CMP      r0,#0xffffffff
        0x0000184c:    dc09        ..      BGT      0x1862 ; SCD_CMD_SET + 278
        0x0000184e:    ed9f1a1e    ....    VLDR     s2,[pc,#120] ; [0x18c8] = 0x3dcccccd
        0x00001852:    bf00        ..      NOP      
        0x00001854:    ee200a01     ...    VMUL.F32 s0,s0,s2
        0x00001858:    3001        .0      ADDS     r0,#1
        0x0000185a:    d3fb        ..      BCC      0x1854 ; SCD_CMD_SET + 264
        0x0000185c:    e001        ..      B        0x1862 ; SCD_CMD_SET + 278
        0x0000185e:    ed9f0a19    ....    VLDR     s0,[pc,#100] ; [0x18c4] = 0
        0x00001862:    ed8a0a00    ....    VSTR     s0,[r10,#0]
        0x00001866:    8828        (.      LDRH     r0,[r5,#0]
        0x00001868:    2802        .(      CMP      r0,#2
        0x0000186a:    d107        ..      BNE      0x187c ; SCD_CMD_SET + 304
        0x0000186c:    f85b6034    [.4`    LDR      r6,[r11,r4,LSL #3]
        0x00001870:    4648        HF      MOV      r0,r9
        0x00001872:    2100        .!      MOVS     r1,#0
        0x00001874:    f000fba2    ....    BL       _cz_strtoxl ; 0x1fbc
        0x00001878:    8030        0.      STRH     r0,[r6,#0]
        0x0000187a:    8828        (.      LDRH     r0,[r5,#0]
        0x0000187c:    2812        .(      CMP      r0,#0x12
        0x0000187e:    d107        ..      BNE      0x1890 ; SCD_CMD_SET + 324
        0x00001880:    f85b6034    [.4`    LDR      r6,[r11,r4,LSL #3]
        0x00001884:    4648        HF      MOV      r0,r9
        0x00001886:    2100        .!      MOVS     r1,#0
        0x00001888:    f000fb98    ....    BL       _cz_strtoxl ; 0x1fbc
        0x0000188c:    8030        0.      STRH     r0,[r6,#0]
        0x0000188e:    8828        (.      LDRH     r0,[r5,#0]
        0x00001890:    2804        .(      CMP      r0,#4
        0x00001892:    d107        ..      BNE      0x18a4 ; SCD_CMD_SET + 344
        0x00001894:    f85b6034    [.4`    LDR      r6,[r11,r4,LSL #3]
        0x00001898:    4648        HF      MOV      r0,r9
        0x0000189a:    2100        .!      MOVS     r1,#0
        0x0000189c:    f000fb8e    ....    BL       _cz_strtoxl ; 0x1fbc
        0x000018a0:    6030        0`      STR      r0,[r6,#0]
        0x000018a2:    8828        (.      LDRH     r0,[r5,#0]
        0x000018a4:    2814        .(      CMP      r0,#0x14
        0x000018a6:    d106        ..      BNE      0x18b6 ; SCD_CMD_SET + 362
        0x000018a8:    f85b4034    [.4@    LDR      r4,[r11,r4,LSL #3]
        0x000018ac:    4648        HF      MOV      r0,r9
        0x000018ae:    2100        .!      MOVS     r1,#0
        0x000018b0:    f000fb84    ....    BL       _cz_strtoxl ; 0x1fbc
        0x000018b4:    6020         `      STR      r0,[r4,#0]
        0x000018b6:    b002        ..      ADD      sp,sp,#8
        0x000018b8:    ecbd8b02    ....    VPOP     {d8}
        0x000018bc:    b001        ..      ADD      sp,sp,#4
        0x000018be:    e8bd8ff0    ....    POP      {r4-r11,pc}
        0x000018c2:    bf00        ..      NOP      
    $d.5
        0x000018c4:    00000000    ....    DCD    0
        0x000018c8:    3dcccccd    ...=    DCD    1036831949
    $t.0
    SCD_Rev1Byte
        0x000018cc:    e92d4ff0    -..O    PUSH     {r4-r11,lr}
        0x000018d0:    b081        ..      SUB      sp,sp,#4
        0x000018d2:    6a85        .j      LDR      r5,[r0,#0x28]
        0x000018d4:    4683        .F      MOV      r11,r0
        0x000018d6:    2921        !)      CMP      r1,#0x21
        0x000018d8:    d130        0.      BNE      0x193c ; SCD_Rev1Byte + 112
        0x000018da:    f9bb0048    ..H.    LDRSH    r0,[r11,#0x48]
        0x000018de:    2801        .(      CMP      r0,#1
        0x000018e0:    f2c080b5    ....    BLT.W    0x1a4e ; SCD_Rev1Byte + 386
        0x000018e4:    f9bb0048    ..H.    LDRSH    r0,[r11,#0x48]
        0x000018e8:    2801        .(      CMP      r0,#1
        0x000018ea:    db11        ..      BLT      0x1910 ; SCD_Rev1Byte + 68
        0x000018ec:    2001        .       MOVS     r0,#1
        0x000018ee:    2100        .!      MOVS     r1,#0
        0x000018f0:    2200        ."      MOVS     r2,#0
        0x000018f2:    bf00        ..      NOP      
        0x000018f4:    18ab        ..      ADDS     r3,r5,r2
        0x000018f6:    5caf        .\      LDRB     r7,[r5,r2]
        0x000018f8:    f8933028    ..(0    LDRB     r3,[r3,#0x28]
        0x000018fc:    3201        .2      ADDS     r2,#1
        0x000018fe:    429f        .B      CMP      r7,r3
        0x00001900:    bf18        ..      IT       NE
        0x00001902:    4608        .F      MOVNE    r0,r1
        0x00001904:    f9bb3048    ..H0    LDRSH    r3,[r11,#0x48]
        0x00001908:    429a        .B      CMP      r2,r3
        0x0000190a:    dbf3        ..      BLT      0x18f4 ; SCD_Rev1Byte + 40
        0x0000190c:    0400        ..      LSLS     r0,r0,#16
        0x0000190e:    d057        W.      BEQ      0x19c0 ; SCD_Rev1Byte + 244
        0x00001910:    f9bb0048    ..H.    LDRSH    r0,[r11,#0x48]
        0x00001914:    2200        ."      MOVS     r2,#0
        0x00001916:    542a        *T      STRB     r2,[r5,r0]
        0x00001918:    f8db0028    ..(.    LDR      r0,[r11,#0x28]
        0x0000191c:    f64206ac    B...    MOV      r6,#0x28ac
        0x00001920:    f2c00600    ....    MOVT     r6,#0
        0x00001924:    b217        ..      SXTH     r7,r2
        0x00001926:    5dc1        .]      LDRB     r1,[r0,r7]
        0x00001928:    f8161021    ..!.    LDRB     r1,[r6,r1,LSL #2]
        0x0000192c:    0749        I.      LSLS     r1,r1,#29
        0x0000192e:    d112        ..      BNE      0x1956 ; SCD_Rev1Byte + 138
        0x00001930:    3201        .2      ADDS     r2,#1
        0x00001932:    b211        ..      SXTH     r1,r2
        0x00001934:    5c41        A\      LDRB     r1,[r0,r1]
        0x00001936:    2900        .)      CMP      r1,#0
        0x00001938:    d1f4        ..      BNE      0x1924 ; SCD_Rev1Byte + 88
        0x0000193a:    e080        ..      B        0x1a3e ; SCD_Rev1Byte + 370
        0x0000193c:    f9bb0046    ..F.    LDRSH    r0,[r11,#0x46]
        0x00001940:    f9bb2048    ..H     LDRSH    r2,[r11,#0x48]
        0x00001944:    eb000080    ....    ADD      r0,r0,r0,LSL #2
        0x00001948:    1c53        S.      ADDS     r3,r2,#1
        0x0000194a:    eb0500c0    ....    ADD      r0,r5,r0,LSL #3
        0x0000194e:    f8ab3048    ..H0    STRH     r3,[r11,#0x48]
        0x00001952:    5481        .T      STRB     r1,[r0,r2]
        0x00001954:    e07b        {.      B        0x1a4e ; SCD_Rev1Byte + 386
        0x00001956:    5dc1        .]      LDRB     r1,[r0,r7]
        0x00001958:    f8161021    ..!.    LDRB     r1,[r6,r1,LSL #2]
        0x0000195c:    0789        ..      LSLS     r1,r1,#30
        0x0000195e:    d06e        n.      BEQ      0x1a3e ; SCD_Rev1Byte + 370
        0x00001960:    2400        .$      MOVS     r4,#0
        0x00001962:    bf00        ..      NOP      
        0x00001964:    fa07f184    ....    SXTAH    r1,r7,r4
        0x00001968:    4623        #F      MOV      r3,r4
        0x0000196a:    5c44        D\      LDRB     r4,[r0,r1]
        0x0000196c:    f8164024    ..$@    LDRB     r4,[r6,r4,LSL #2]
        0x00001970:    07a4        ..      LSLS     r4,r4,#30
        0x00001972:    f1030401    ....    ADD      r4,r3,#1
        0x00001976:    d1f5        ..      BNE      0x1964 ; SCD_Rev1Byte + 152
        0x00001978:    b29f        ..      UXTH     r7,r3
        0x0000197a:    fa00f982    ....    SXTAH    r9,r0,r2
        0x0000197e:    fa0ffa83    ....    SXTH     r10,r3
        0x00001982:    2600        .&      MOVS     r6,#0
        0x00001984:    2300        .#      MOVS     r3,#0
        0x00001986:    9700        ..      STR      r7,[sp,#0]
        0x00001988:    f1ba0f01    ....    CMP      r10,#1
        0x0000198c:    db21        !.      BLT      0x19d2 ; SCD_Rev1Byte + 262
        0x0000198e:    a231        1.      ADR      r2,{pc}+0xc6 ; 0x1a54
        0x00001990:    f8527023    R.#p    LDR      r7,[r2,r3,LSL #2]
        0x00001994:    f8dde000    ....    LDR      lr,[sp,#0]
        0x00001998:    2201        ."      MOVS     r2,#1
        0x0000199a:    464c        LF      MOV      r4,r9
        0x0000199c:    f8148b01    ....    LDRB     r8,[r4],#1
        0x000019a0:    f817cb01    ....    LDRB     r12,[r7],#1
        0x000019a4:    45e0        .E      CMP      r8,r12
        0x000019a6:    bf18        ..      IT       NE
        0x000019a8:    4632        2F      MOVNE    r2,r6
        0x000019aa:    f1be0e01    ....    SUBS     lr,lr,#1
        0x000019ae:    d1f5        ..      BNE      0x199c ; SCD_Rev1Byte + 208
        0x000019b0:    0412        ..      LSLS     r2,r2,#16
        0x000019b2:    d10f        ..      BNE      0x19d4 ; SCD_Rev1Byte + 264
        0x000019b4:    3301        .3      ADDS     r3,#1
        0x000019b6:    2b05        .+      CMP      r3,#5
        0x000019b8:    d1e6        ..      BNE      0x1988 ; SCD_Rev1Byte + 188
        0x000019ba:    f04f33ff    O..3    MOV      r3,#0xffffffff
        0x000019be:    e009        ..      B        0x19d4 ; SCD_Rev1Byte + 264
        0x000019c0:    f8bb0046    ..F.    LDRH     r0,[r11,#0x46]
        0x000019c4:    2800        .(      CMP      r0,#0
        0x000019c6:    bf0c        ..      ITE      EQ
        0x000019c8:    2001        .       MOVEQ    r0,#1
        0x000019ca:    2000        .       MOVNE    r0,#0
        0x000019cc:    f8ab0046    ..F.    STRH     r0,[r11,#0x46]
        0x000019d0:    e03a        :.      B        0x1a48 ; SCD_Rev1Byte + 380
        0x000019d2:    2300        .#      MOVS     r3,#0
        0x000019d4:    b20a        ..      SXTH     r2,r1
        0x000019d6:    5c82        .\      LDRB     r2,[r0,r2]
        0x000019d8:    3a30        0:      SUBS     r2,r2,#0x30
        0x000019da:    2a09        .*      CMP      r2,#9
        0x000019dc:    d82f        /.      BHI      0x1a3e ; SCD_Rev1Byte + 370
        0x000019de:    fa00f281    ....    SXTAH    r2,r0,r1
        0x000019e2:    7817        .x      LDRB     r7,[r2,#0]
        0x000019e4:    3f30        0?      SUBS     r7,r7,#0x30
        0x000019e6:    2f09        ./      CMP      r7,#9
        0x000019e8:    d901        ..      BLS      0x19ee ; SCD_Rev1Byte + 290
        0x000019ea:    2700        .'      MOVS     r7,#0
        0x000019ec:    e00f        ..      B        0x1a0e ; SCD_Rev1Byte + 322
        0x000019ee:    2700        .'      MOVS     r7,#0
        0x000019f0:    3101        .1      ADDS     r1,#1
        0x000019f2:    b20e        ..      SXTH     r6,r1
        0x000019f4:    eb070787    ....    ADD      r7,r7,r7,LSL #2
        0x000019f8:    7812        .x      LDRB     r2,[r2,#0]
        0x000019fa:    5d86        .]      LDRB     r6,[r0,r6]
        0x000019fc:    eb020747    ..G.    ADD      r7,r2,r7,LSL #1
        0x00001a00:    fa00f281    ....    SXTAH    r2,r0,r1
        0x00001a04:    3e30        0>      SUBS     r6,r6,#0x30
        0x00001a06:    2e0a        ..      CMP      r6,#0xa
        0x00001a08:    f1a70730    ..0.    SUB      r7,r7,#0x30
        0x00001a0c:    d3f0        ..      BCC      0x19f0 ; SCD_Rev1Byte + 292
        0x00001a0e:    7812        .x      LDRB     r2,[r2,#0]
        0x00001a10:    2a23        #*      CMP      r2,#0x23
        0x00001a12:    d114        ..      BNE      0x1a3e ; SCD_Rev1Byte + 370
        0x00001a14:    b29a        ..      UXTH     r2,r3
        0x00001a16:    2a04        .*      CMP      r2,#4
        0x00001a18:    d811        ..      BHI      0x1a3e ; SCD_Rev1Byte + 370
        0x00001a1a:    b23a        :.      SXTH     r2,r7
        0x00001a1c:    f9bb7044    ..Dp    LDRSH    r7,[r11,#0x44]
        0x00001a20:    f04f36ff    O..6    MOV      r6,#0xffffffff
        0x00001a24:    42b2        .B      CMP      r2,r6
        0x00001a26:    dd0a        ..      BLE      0x1a3e ; SCD_Rev1Byte + 370
        0x00001a28:    42ba        .B      CMP      r2,r7
        0x00001a2a:    da08        ..      BGE      0x1a3e ; SCD_Rev1Byte + 370
        0x00001a2c:    b21b        ..      SXTH     r3,r3
        0x00001a2e:    3101        .1      ADDS     r1,#1
        0x00001a30:    a70d        ..      ADR      r7,{pc}+0x38 ; 0x1a68
        0x00001a32:    f8573023    W.#0    LDR      r3,[r7,r3,LSL #2]
        0x00001a36:    fa00f181    ....    SXTAH    r1,r0,r1
        0x00001a3a:    4658        XF      MOV      r0,r11
        0x00001a3c:    4798        .G      BLX      r3
        0x00001a3e:    2000        .       MOVS     r0,#0
        0x00001a40:    f8ab0046    ..F.    STRH     r0,[r11,#0x46]
        0x00001a44:    f8850028    ..(.    STRB     r0,[r5,#0x28]
        0x00001a48:    2000        .       MOVS     r0,#0
        0x00001a4a:    f8ab0048    ..H.    STRH     r0,[r11,#0x48]
        0x00001a4e:    b001        ..      ADD      sp,sp,#4
        0x00001a50:    e8bd8ff0    ....    POP      {r4-r11,pc}
    $d.1
    SCD_CMD_TAB
        0x00001a54:    00002cbf    .,..    DCD    11455
        0x00001a58:    00002cac    .,..    DCD    11436
        0x00001a5c:    00002cb1    .,..    DCD    11441
        0x00001a60:    00002cba    .,..    DCD    11450
        0x00001a64:    00002cb5    .,..    DCD    11445
    SCD_CMD_FCNS
        0x00001a68:    0000174d    M...    DCD    5965
        0x00001a6c:    0000170b    ....    DCD    5899
        0x00001a70:    000016f5    ....    DCD    5877
        0x00001a74:    00001725    %...    DCD    5925
        0x00001a78:    000016cd    ....    DCD    5837
    $t.14
    SCO_DEBUG
        0x00001a7c:    f8b00050    ..P.    LDRH     r0,[r0,#0x50]
        0x00001a80:    3802        .8      SUBS     r0,#2
        0x00001a82:    bf18        ..      IT       NE
        0x00001a84:    2001        .       MOVNE    r0,#1
        0x00001a86:    0200        ..      LSLS     r0,r0,#8
        0x00001a88:    4770        pG      BX       lr
        0x00001a8a:    0000        ..      MOVS     r0,r0
    SCO_DUMP
        0x00001a8c:    b5f0        ..      PUSH     {r4-r7,lr}
        0x00001a8e:    f9b01058    ..X.    LDRSH    r1,[r0,#0x58]
        0x00001a92:    f9b0205c    ..\     LDRSH    r2,[r0,#0x5c]
        0x00001a96:    4291        .B      CMP      r1,r2
        0x00001a98:    da51        Q.      BGE      0x1b3e ; SCO_DUMP + 178
        0x00001a9a:    f2400c18    @...    MOVW     r12,#0x18
        0x00001a9e:    f24032ea    @..2    MOV      r2,#0x3ea
        0x00001aa2:    2300        .#      MOVS     r3,#0
        0x00001aa4:    f04f0e02    O...    MOV      lr,#2
        0x00001aa8:    f2c20c00    ....    MOVT     r12,#0x2000
        0x00001aac:    2101        .!      MOVS     r1,#1
        0x00001aae:    bf00        ..      NOP      
        0x00001ab0:    f9b0505e    ..^P    LDRSH    r5,[r0,#0x5e]
        0x00001ab4:    f9b04056    ..V@    LDRSH    r4,[r0,#0x56]
        0x00001ab8:    4295        .B      CMP      r5,r2
        0x00001aba:    db25        %.      BLT      0x1b08 ; SCO_DUMP + 124
        0x00001abc:    b9bc        ..      CBNZ     r4,0x1aee ; SCO_DUMP + 98
        0x00001abe:    f8b04060    ..`@    LDRH     r4,[r0,#0x60]
        0x00001ac2:    6b45        Ek      LDR      r5,[r0,#0x34]
        0x00001ac4:    4626        &F      MOV      r6,r4
        0x00001ac6:    4627        'F      MOV      r7,r4
        0x00001ac8:    2c00        .,      CMP      r4,#0
        0x00001aca:    bf1c        ..      ITT      NE
        0x00001acc:    f06f0632    o.2.    MVNNE    r6,#0x32
        0x00001ad0:    f06f0733    o.3.    MVNNE    r7,#0x33
        0x00001ad4:    702e        .p      STRB     r6,[r5,#0]
        0x00001ad6:    6b45        Ek      LDR      r5,[r0,#0x34]
        0x00001ad8:    4626        &F      MOV      r6,r4
        0x00001ada:    706f        op      STRB     r7,[r5,#1]
        0x00001adc:    6b45        Ek      LDR      r5,[r0,#0x34]
        0x00001ade:    bf18        ..      IT       NE
        0x00001ae0:    f06f0673    o.s.    MVNNE    r6,#0x73
        0x00001ae4:    70ae        .p      STRB     r6,[r5,#2]
        0x00001ae6:    6b45        Ek      LDR      r5,[r0,#0x34]
        0x00001ae8:    bf18        ..      IT       NE
        0x00001aea:    243f        ?$      MOVNE    r4,#0x3f
        0x00001aec:    70ec        .p      STRB     r4,[r5,#3]
        0x00001aee:    f9b04056    ..V@    LDRSH    r4,[r0,#0x56]
        0x00001af2:    2c07        .,      CMP      r4,#7
        0x00001af4:    dd36        6.      BLE      0x1b64 ; SCO_DUMP + 216
        0x00001af6:    f8a03056    ..V0    STRH     r3,[r0,#0x56]
        0x00001afa:    f8ac3000    ...0    STRH     r3,[r12,#0]
        0x00001afe:    f8a0e05e    ..^.    STRH     lr,[r0,#0x5e]
        0x00001b02:    f8a01060    ..`.    STRH     r1,[r0,#0x60]
        0x00001b06:    e014        ..      B        0x1b32 ; SCO_DUMP + 166
        0x00001b08:    2c03        .,      CMP      r4,#3
        0x00001b0a:    dd4b        K.      BLE      0x1ba4 ; SCO_DUMP + 280
        0x00001b0c:    f8a03056    ..V0    STRH     r3,[r0,#0x56]
        0x00001b10:    f8b04058    ..X@    LDRH     r4,[r0,#0x58]
        0x00001b14:    3401        .4      ADDS     r4,#1
        0x00001b16:    f8a04058    ..X@    STRH     r4,[r0,#0x58]
        0x00001b1a:    f8b0405e    ..^@    LDRH     r4,[r0,#0x5e]
        0x00001b1e:    3401        .4      ADDS     r4,#1
        0x00001b20:    f8a0405e    ..^@    STRH     r4,[r0,#0x5e]
        0x00001b24:    f8bc4000    ...@    LDRH     r4,[r12,#0]
        0x00001b28:    6b45        Ek      LDR      r5,[r0,#0x34]
        0x00001b2a:    712c        ,q      STRB     r4,[r5,#4]
        0x00001b2c:    6b45        Ek      LDR      r5,[r0,#0x34]
        0x00001b2e:    0a24        $.      LSRS     r4,r4,#8
        0x00001b30:    716c        lq      STRB     r4,[r5,#5]
        0x00001b32:    f9b04058    ..X@    LDRSH    r4,[r0,#0x58]
        0x00001b36:    f9b0505c    ..\P    LDRSH    r5,[r0,#0x5c]
        0x00001b3a:    42ac        .B      CMP      r4,r5
        0x00001b3c:    dbb8        ..      BLT      0x1ab0 ; SCO_DUMP + 36
        0x00001b3e:    f8b01056    ..V.    LDRH     r1,[r0,#0x56]
        0x00001b42:    b959        Y.      CBNZ     r1,0x1b5c ; SCO_DUMP + 208
        0x00001b44:    6b41        Ak      LDR      r1,[r0,#0x34]
        0x00001b46:    22cd        ."      MOVS     r2,#0xcd
        0x00001b48:    700a        .p      STRB     r2,[r1,#0]
        0x00001b4a:    6b41        Ak      LDR      r1,[r0,#0x34]
        0x00001b4c:    22cc        ."      MOVS     r2,#0xcc
        0x00001b4e:    704a        Jp      STRB     r2,[r1,#1]
        0x00001b50:    6b41        Ak      LDR      r1,[r0,#0x34]
        0x00001b52:    220c        ."      MOVS     r2,#0xc
        0x00001b54:    708a        .p      STRB     r2,[r1,#2]
        0x00001b56:    6b41        Ak      LDR      r1,[r0,#0x34]
        0x00001b58:    2240        @"      MOVS     r2,#0x40
        0x00001b5a:    70ca        .p      STRB     r2,[r1,#3]
        0x00001b5c:    f9b01056    ..V.    LDRSH    r1,[r0,#0x56]
        0x00001b60:    2907        .)      CMP      r1,#7
        0x00001b62:    dc07        ..      BGT      0x1b74 ; SCO_DUMP + 232
        0x00001b64:    6b41        Ak      LDR      r1,[r0,#0x34]
        0x00001b66:    f9b02056    ..V     LDRSH    r2,[r0,#0x56]
        0x00001b6a:    1c53        S.      ADDS     r3,r2,#1
        0x00001b6c:    f8a03056    ..V0    STRH     r3,[r0,#0x56]
        0x00001b70:    5c88        .\      LDRB     r0,[r1,r2]
        0x00001b72:    bdf0        ..      POP      {r4-r7,pc}
        0x00001b74:    f2400218    @...    MOVW     r2,#0x18
        0x00001b78:    2100        .!      MOVS     r1,#0
        0x00001b7a:    f2c20200    ....    MOVT     r2,#0x2000
        0x00001b7e:    f8a01056    ..V.    STRH     r1,[r0,#0x56]
        0x00001b82:    f8a01058    ..X.    STRH     r1,[r0,#0x58]
        0x00001b86:    8011        ..      STRH     r1,[r2,#0]
        0x00001b88:    2202        ."      MOVS     r2,#2
        0x00001b8a:    f8a0205e    ..^     STRH     r2,[r0,#0x5e]
        0x00001b8e:    f8a01060    ..`.    STRH     r1,[r0,#0x60]
        0x00001b92:    f8b02050    ..P     LDRH     r2,[r0,#0x50]
        0x00001b96:    2a03        .*      CMP      r2,#3
        0x00001b98:    bf08        ..      IT       EQ
        0x00001b9a:    f8a01050    ..P.    STRHEQ   r1,[r0,#0x50]
        0x00001b9e:    f44f7080    O..p    MOV      r0,#0x100
        0x00001ba2:    bdf0        ..      POP      {r4-r7,pc}
        0x00001ba4:    f8b01056    ..V.    LDRH     r1,[r0,#0x56]
        0x00001ba8:    2900        .)      CMP      r1,#0
        0x00001baa:    d13e        >.      BNE      0x1c2a ; SCO_DUMP + 414
        0x00001bac:    6bc1        .k      LDR      r1,[r0,#0x3c]
        0x00001bae:    f9b0205a    ..Z     LDRSH    r2,[r0,#0x5a]
        0x00001bb2:    eb0102c2    ....    ADD      r2,r1,r2,LSL #3
        0x00001bb6:    7912        .y      LDRB     r2,[r2,#4]
        0x00001bb8:    f9b0305a    ..Z0    LDRSH    r3,[r0,#0x5a]
        0x00001bbc:    2a13        .*      CMP      r2,#0x13
        0x00001bbe:    f8511033    Q.3.    LDR      r1,[r1,r3,LSL #3]
        0x00001bc2:    dd06        ..      BLE      0x1bd2 ; SCO_DUMP + 326
        0x00001bc4:    2a14        .*      CMP      r2,#0x14
        0x00001bc6:    d00f        ..      BEQ      0x1be8 ; SCO_DUMP + 348
        0x00001bc8:    2a24        $*      CMP      r2,#0x24
        0x00001bca:    d014        ..      BEQ      0x1bf6 ; SCO_DUMP + 362
        0x00001bcc:    2a32        2*      CMP      r2,#0x32
        0x00001bce:    d01d        ..      BEQ      0x1c0c ; SCO_DUMP + 384
        0x00001bd0:    e021        !.      B        0x1c16 ; SCO_DUMP + 394
        0x00001bd2:    2a02        .*      CMP      r2,#2
        0x00001bd4:    d016        ..      BEQ      0x1c04 ; SCO_DUMP + 376
        0x00001bd6:    2a04        .*      CMP      r2,#4
        0x00001bd8:    d11d        ..      BNE      0x1c16 ; SCO_DUMP + 394
        0x00001bda:    f9b02058    ..X     LDRSH    r2,[r0,#0x58]
        0x00001bde:    eb010182    ....    ADD      r1,r1,r2,LSL #2
        0x00001be2:    ed910a00    ....    VLDR     s0,[r1,#0]
        0x00001be6:    e013        ..      B        0x1c10 ; SCO_DUMP + 388
        0x00001be8:    f9b02058    ..X     LDRSH    r2,[r0,#0x58]
        0x00001bec:    eb010182    ....    ADD      r1,r1,r2,LSL #2
        0x00001bf0:    ed910a00    ....    VLDR     s0,[r1,#0]
        0x00001bf4:    e015        ..      B        0x1c22 ; SCO_DUMP + 406
        0x00001bf6:    f9b02058    ..X     LDRSH    r2,[r0,#0x58]
        0x00001bfa:    eb010182    ....    ADD      r1,r1,r2,LSL #2
        0x00001bfe:    ed910a00    ....    VLDR     s0,[r1,#0]
        0x00001c02:    e010        ..      B        0x1c26 ; SCO_DUMP + 410
        0x00001c04:    f9b02058    ..X     LDRSH    r2,[r0,#0x58]
        0x00001c08:    f8311012    1...    LDRH     r1,[r1,r2,LSL #1]
        0x00001c0c:    ee001a10    ....    VMOV     s0,r1
        0x00001c10:    eeb80a40    ..@.    VCVT.F32.U32 s0,s0
        0x00001c14:    e007        ..      B        0x1c26 ; SCO_DUMP + 410
        0x00001c16:    f9b02058    ..X     LDRSH    r2,[r0,#0x58]
        0x00001c1a:    f9311012    1...    LDRSH    r1,[r1,r2,LSL #1]
        0x00001c1e:    ee001a10    ....    VMOV     s0,r1
        0x00001c22:    eeb80ac0    ....    VCVT.F32.S32 s0,s0
        0x00001c26:    ed800a10    ....    VSTR     s0,[r0,#0x40]
        0x00001c2a:    f9b01056    ..V.    LDRSH    r1,[r0,#0x56]
        0x00001c2e:    f8b02056    ..V     LDRH     r2,[r0,#0x56]
        0x00001c32:    f0210101    !...    BIC      r1,r1,#1
        0x00001c36:    1c53        S.      ADDS     r3,r2,#1
        0x00001c38:    4401        .D      ADD      r1,r1,r0
        0x00001c3a:    f8a03056    ..V0    STRH     r3,[r0,#0x56]
        0x00001c3e:    f8b10040    ..@.    LDRH     r0,[r1,#0x40]
        0x00001c42:    07d1        ..      LSLS     r1,r2,#31
        0x00001c44:    bf1c        ..      ITT      NE
        0x00001c46:    0a00        ..      LSRNE    r0,r0,#8
        0x00001c48:    bdf0        ..      POPNE    {r4-r7,pc}
        0x00001c4a:    f8bc1000    ....    LDRH     r1,[r12,#0]
        0x00001c4e:    4401        .D      ADD      r1,r1,r0
        0x00001c50:    b2c0        ..      UXTB     r0,r0
        0x00001c52:    f8ac1000    ....    STRH     r1,[r12,#0]
        0x00001c56:    bdf0        ..      POP      {r4-r7,pc}
    SCO_PRINT
        0x00001c58:    f8b01066    ..f.    LDRH     r1,[r0,#0x66]
        0x00001c5c:    2904        .)      CMP      r1,#4
        0x00001c5e:    bf04        ..      ITT      EQ
        0x00001c60:    2100        .!      MOVEQ    r1,#0
        0x00001c62:    f8a01066    ..f.    STRHEQ   r1,[r0,#0x66]
        0x00001c66:    f8b01066    ..f.    LDRH     r1,[r0,#0x66]
        0x00001c6a:    bb39        9.      CBNZ     r1,0x1cbc ; SCO_PRINT + 100
        0x00001c6c:    f9b01064    ..d.    LDRSH    r1,[r0,#0x64]
        0x00001c70:    f9b02062    ..b     LDRSH    r2,[r0,#0x62]
        0x00001c74:    4291        .B      CMP      r1,r2
        0x00001c76:    da16        ..      BGE      0x1ca6 ; SCO_PRINT + 78
        0x00001c78:    6ac1        .j      LDR      r1,[r0,#0x2c]
        0x00001c7a:    f9b02064    ..d     LDRSH    r2,[r0,#0x64]
        0x00001c7e:    1c53        S.      ADDS     r3,r2,#1
        0x00001c80:    f8a03064    ..d0    STRH     r3,[r0,#0x64]
        0x00001c84:    5c89        .\      LDRB     r1,[r1,r2]
        0x00001c86:    6b82        .k      LDR      r2,[r0,#0x38]
        0x00001c88:    7011        .p      STRB     r1,[r2,#0]
        0x00001c8a:    f9b01064    ..d.    LDRSH    r1,[r0,#0x64]
        0x00001c8e:    f9b02062    ..b     LDRSH    r2,[r0,#0x62]
        0x00001c92:    4291        .B      CMP      r1,r2
        0x00001c94:    da0f        ..      BGE      0x1cb6 ; SCO_PRINT + 94
        0x00001c96:    6ac1        .j      LDR      r1,[r0,#0x2c]
        0x00001c98:    f9b02064    ..d     LDRSH    r2,[r0,#0x64]
        0x00001c9c:    1c53        S.      ADDS     r3,r2,#1
        0x00001c9e:    f8a03064    ..d0    STRH     r3,[r0,#0x64]
        0x00001ca2:    5c89        .\      LDRB     r1,[r1,r2]
        0x00001ca4:    e008        ..      B        0x1cb8 ; SCO_PRINT + 96
        0x00001ca6:    2100        .!      MOVS     r1,#0
        0x00001ca8:    f8a01064    ..d.    STRH     r1,[r0,#0x64]
        0x00001cac:    f8a01062    ..b.    STRH     r1,[r0,#0x62]
        0x00001cb0:    f44f7080    O..p    MOV      r0,#0x100
        0x00001cb4:    4770        pG      BX       lr
        0x00001cb6:    2100        .!      MOVS     r1,#0
        0x00001cb8:    6b82        .k      LDR      r2,[r0,#0x38]
        0x00001cba:    7051        Qp      STRB     r1,[r2,#1]
        0x00001cbc:    6b81        .k      LDR      r1,[r0,#0x38]
        0x00001cbe:    f9b02066    ..f     LDRSH    r2,[r0,#0x66]
        0x00001cc2:    1c53        S.      ADDS     r3,r2,#1
        0x00001cc4:    f8a03066    ..f0    STRH     r3,[r0,#0x66]
        0x00001cc8:    5c88        .\      LDRB     r0,[r1,r2]
        0x00001cca:    4770        pG      BX       lr
    SCO_VAR
        0x00001ccc:    b580        ..      PUSH     {r7,lr}
        0x00001cce:    f2400c1a    @...    MOVW     r12,#0x1a
        0x00001cd2:    f04f0e00    O...    MOV      lr,#0
        0x00001cd6:    f2c20c00    ....    MOVT     r12,#0x2000
        0x00001cda:    bf00        ..      NOP      
        0x00001cdc:    f8b03054    ..T0    LDRH     r3,[r0,#0x54]
        0x00001ce0:    b1c3        ..      CBZ      r3,0x1d14 ; SCO_VAR + 72
        0x00001ce2:    f9b01054    ..T.    LDRSH    r1,[r0,#0x54]
        0x00001ce6:    f9b02044    ..D     LDRSH    r2,[r0,#0x44]
        0x00001cea:    f9b03052    ..R0    LDRSH    r3,[r0,#0x52]
        0x00001cee:    4291        .B      CMP      r1,r2
        0x00001cf0:    dc1f        ..      BGT      0x1d32 ; SCO_VAR + 102
        0x00001cf2:    2b03        .+      CMP      r3,#3
        0x00001cf4:    dd27        '.      BLE      0x1d46 ; SCO_VAR + 122
        0x00001cf6:    f8a0e052    ..R.    STRH     lr,[r0,#0x52]
        0x00001cfa:    f8b01054    ..T.    LDRH     r1,[r0,#0x54]
        0x00001cfe:    3101        .1      ADDS     r1,#1
        0x00001d00:    f8a01054    ..T.    STRH     r1,[r0,#0x54]
        0x00001d04:    f8bc1000    ....    LDRH     r1,[r12,#0]
        0x00001d08:    6b02        .k      LDR      r2,[r0,#0x30]
        0x00001d0a:    7011        .p      STRB     r1,[r2,#0]
        0x00001d0c:    6b02        .k      LDR      r2,[r0,#0x30]
        0x00001d0e:    0a09        ..      LSRS     r1,r1,#8
        0x00001d10:    7051        Qp      STRB     r1,[r2,#1]
        0x00001d12:    e7e3        ..      B        0x1cdc ; SCO_VAR + 16
        0x00001d14:    f9b03052    ..R0    LDRSH    r3,[r0,#0x52]
        0x00001d18:    f1b33fff    ...?    CMP      r3,#0xffffffff
        0x00001d1c:    dd2f        /.      BLE      0x1d7e ; SCO_VAR + 178
        0x00001d1e:    f8a0e052    ..R.    STRH     lr,[r0,#0x52]
        0x00001d22:    f8b03054    ..T0    LDRH     r3,[r0,#0x54]
        0x00001d26:    3301        .3      ADDS     r3,#1
        0x00001d28:    f8a03054    ..T0    STRH     r3,[r0,#0x54]
        0x00001d2c:    f8ace000    ....    STRH     lr,[r12,#0]
        0x00001d30:    e7d4        ..      B        0x1cdc ; SCO_VAR + 16
        0x00001d32:    2b03        .+      CMP      r3,#3
        0x00001d34:    dc2a        *.      BGT      0x1d8c ; SCO_VAR + 192
        0x00001d36:    6b01        .k      LDR      r1,[r0,#0x30]
        0x00001d38:    f9b02052    ..R     LDRSH    r2,[r0,#0x52]
        0x00001d3c:    1c53        S.      ADDS     r3,r2,#1
        0x00001d3e:    f8a03052    ..R0    STRH     r3,[r0,#0x52]
        0x00001d42:    5c88        .\      LDRB     r0,[r1,r2]
        0x00001d44:    bd80        ..      POP      {r7,pc}
        0x00001d46:    f8b01052    ..R.    LDRH     r1,[r0,#0x52]
        0x00001d4a:    2900        .)      CMP      r1,#0
        0x00001d4c:    d147        G.      BNE      0x1dde ; SCO_VAR + 274
        0x00001d4e:    6bc1        .k      LDR      r1,[r0,#0x3c]
        0x00001d50:    f9b02054    ..T     LDRSH    r2,[r0,#0x54]
        0x00001d54:    eb0102c2    ....    ADD      r2,r1,r2,LSL #3
        0x00001d58:    f8123c04    ...<    LDRB     r3,[r2,#-4]
        0x00001d5c:    f9b02054    ..T     LDRSH    r2,[r0,#0x54]
        0x00001d60:    2b13        .+      CMP      r3,#0x13
        0x00001d62:    eb0101c2    ....    ADD      r1,r1,r2,LSL #3
        0x00001d66:    f8512c08    Q..,    LDR      r2,[r1,#-8]
        0x00001d6a:    dd1d        ..      BLE      0x1da8 ; SCO_VAR + 220
        0x00001d6c:    2b14        .+      CMP      r3,#0x14
        0x00001d6e:    d022        ".      BEQ      0x1db6 ; SCO_VAR + 234
        0x00001d70:    2b24        $+      CMP      r3,#0x24
        0x00001d72:    d023        #.      BEQ      0x1dbc ; SCO_VAR + 240
        0x00001d74:    2b32        2+      CMP      r3,#0x32
        0x00001d76:    d12a        *.      BNE      0x1dce ; SCO_VAR + 258
        0x00001d78:    ee002a10    ...*    VMOV     s0,r2
        0x00001d7c:    e024        $.      B        0x1dc8 ; SCO_VAR + 252
        0x00001d7e:    f8b01052    ..R.    LDRH     r1,[r0,#0x52]
        0x00001d82:    3101        .1      ADDS     r1,#1
        0x00001d84:    f8a01052    ..R.    STRH     r1,[r0,#0x52]
        0x00001d88:    2000        .       MOVS     r0,#0
        0x00001d8a:    bd80        ..      POP      {r7,pc}
        0x00001d8c:    2100        .!      MOVS     r1,#0
        0x00001d8e:    f8a01052    ..R.    STRH     r1,[r0,#0x52]
        0x00001d92:    f8a01054    ..T.    STRH     r1,[r0,#0x54]
        0x00001d96:    f8b02050    ..P     LDRH     r2,[r0,#0x50]
        0x00001d9a:    2a01        .*      CMP      r2,#1
        0x00001d9c:    bf08        ..      IT       EQ
        0x00001d9e:    f8a01050    ..P.    STRHEQ   r1,[r0,#0x50]
        0x00001da2:    f44f7080    O..p    MOV      r0,#0x100
        0x00001da6:    bd80        ..      POP      {r7,pc}
        0x00001da8:    2b02        .+      CMP      r3,#2
        0x00001daa:    d00a        ..      BEQ      0x1dc2 ; SCO_VAR + 246
        0x00001dac:    2b04        .+      CMP      r3,#4
        0x00001dae:    d10e        ..      BNE      0x1dce ; SCO_VAR + 258
        0x00001db0:    ed920a00    ....    VLDR     s0,[r2,#0]
        0x00001db4:    e008        ..      B        0x1dc8 ; SCO_VAR + 252
        0x00001db6:    ed920a00    ....    VLDR     s0,[r2,#0]
        0x00001dba:    e00c        ..      B        0x1dd6 ; SCO_VAR + 266
        0x00001dbc:    ed920a00    ....    VLDR     s0,[r2,#0]
        0x00001dc0:    e00b        ..      B        0x1dda ; SCO_VAR + 270
        0x00001dc2:    8811        ..      LDRH     r1,[r2,#0]
        0x00001dc4:    ee001a10    ....    VMOV     s0,r1
        0x00001dc8:    eeb80a40    ..@.    VCVT.F32.U32 s0,s0
        0x00001dcc:    e005        ..      B        0x1dda ; SCO_VAR + 270
        0x00001dce:    f9b21000    ....    LDRSH    r1,[r2,#0]
        0x00001dd2:    ee001a10    ....    VMOV     s0,r1
        0x00001dd6:    eeb80ac0    ....    VCVT.F32.S32 s0,s0
        0x00001dda:    ed800a10    ....    VSTR     s0,[r0,#0x40]
        0x00001dde:    f9b01052    ..R.    LDRSH    r1,[r0,#0x52]
        0x00001de2:    f8b02052    ..R     LDRH     r2,[r0,#0x52]
        0x00001de6:    f0210101    !...    BIC      r1,r1,#1
        0x00001dea:    1c53        S.      ADDS     r3,r2,#1
        0x00001dec:    4401        .D      ADD      r1,r1,r0
        0x00001dee:    f8a03052    ..R0    STRH     r3,[r0,#0x52]
        0x00001df2:    f8b10040    ..@.    LDRH     r0,[r1,#0x40]
        0x00001df6:    07d1        ..      LSLS     r1,r2,#31
        0x00001df8:    bf1c        ..      ITT      NE
        0x00001dfa:    0a00        ..      LSRNE    r0,r0,#8
        0x00001dfc:    bd80        ..      POPNE    {r7,pc}
        0x00001dfe:    f8bc1000    ....    LDRH     r1,[r12,#0]
        0x00001e02:    4401        .D      ADD      r1,r1,r0
        0x00001e04:    b2c0        ..      UXTB     r0,r0
        0x00001e06:    f8ac1000    ....    STRH     r1,[r12,#0]
        0x00001e0a:    bd80        ..      POP      {r7,pc}
    SCO_get
        0x00001e0c:    f04f0c00    O...    MOV      r12,#0
        0x00001e10:    f8b0204c    ..L     LDRH     r2,[r0,#0x4c]
        0x00001e14:    b172        r.      CBZ      r2,0x1e34 ; SCO_get + 40
        0x00001e16:    f9b0204c    ..L     LDRSH    r2,[r0,#0x4c]
        0x00001e1a:    eb000242    ..B.    ADD      r2,r0,r2,LSL #1
        0x00001e1e:    f9323c02    2..<    LDRSH    r3,[r2,#-2]
        0x00001e22:    f9b01044    ..D.    LDRSH    r1,[r0,#0x44]
        0x00001e26:    f9b0204a    ..J     LDRSH    r2,[r0,#0x4a]
        0x00001e2a:    428b        .B      CMP      r3,r1
        0x00001e2c:    dc0f        ..      BGT      0x1e4e ; SCO_get + 66
        0x00001e2e:    2a03        .*      CMP      r2,#3
        0x00001e30:    dc05        ..      BGT      0x1e3e ; SCO_get + 50
        0x00001e32:    e016        ..      B        0x1e62 ; SCO_get + 86
        0x00001e34:    f9b0204a    ..J     LDRSH    r2,[r0,#0x4a]
        0x00001e38:    f1b23fff    ...?    CMP      r2,#0xffffffff
        0x00001e3c:    dd30        0.      BLE      0x1ea0 ; SCO_get + 148
        0x00001e3e:    f8a0c04a    ..J.    STRH     r12,[r0,#0x4a]
        0x00001e42:    f8b0204c    ..L     LDRH     r2,[r0,#0x4c]
        0x00001e46:    3201        .2      ADDS     r2,#1
        0x00001e48:    f8a0204c    ..L     STRH     r2,[r0,#0x4c]
        0x00001e4c:    e7e0        ..      B        0x1e10 ; SCO_get + 4
        0x00001e4e:    2a03        .*      CMP      r2,#3
        0x00001e50:    dc2d        -.      BGT      0x1eae ; SCO_get + 162
        0x00001e52:    f9b0104a    ..J.    LDRSH    r1,[r0,#0x4a]
        0x00001e56:    a330        0.      ADR      r3,{pc}+0xc2 ; 0x1f18
        0x00001e58:    1c4a        J.      ADDS     r2,r1,#1
        0x00001e5a:    5c59        Y\      LDRB     r1,[r3,r1]
        0x00001e5c:    f8a0204a    ..J     STRH     r2,[r0,#0x4a]
        0x00001e60:    e058        X.      B        0x1f14 ; SCO_get + 264
        0x00001e62:    f8b0104a    ..J.    LDRH     r1,[r0,#0x4a]
        0x00001e66:    2900        .)      CMP      r1,#0
        0x00001e68:    d144        D.      BNE      0x1ef4 ; SCO_get + 232
        0x00001e6a:    6bc1        .k      LDR      r1,[r0,#0x3c]
        0x00001e6c:    f9b0204c    ..L     LDRSH    r2,[r0,#0x4c]
        0x00001e70:    eb000242    ..B.    ADD      r2,r0,r2,LSL #1
        0x00001e74:    f9322c02    2..,    LDRSH    r2,[r2,#-2]
        0x00001e78:    eb0102c2    ....    ADD      r2,r1,r2,LSL #3
        0x00001e7c:    7912        .y      LDRB     r2,[r2,#4]
        0x00001e7e:    f9b0304c    ..L0    LDRSH    r3,[r0,#0x4c]
        0x00001e82:    2a13        .*      CMP      r2,#0x13
        0x00001e84:    eb000343    ..C.    ADD      r3,r0,r3,LSL #1
        0x00001e88:    f9333c02    3..<    LDRSH    r3,[r3,#-2]
        0x00001e8c:    f8511033    Q.3.    LDR      r1,[r1,r3,LSL #3]
        0x00001e90:    dd15        ..      BLE      0x1ebe ; SCO_get + 178
        0x00001e92:    2a14        .*      CMP      r2,#0x14
        0x00001e94:    d01a        ..      BEQ      0x1ecc ; SCO_get + 192
        0x00001e96:    2a24        $*      CMP      r2,#0x24
        0x00001e98:    d01b        ..      BEQ      0x1ed2 ; SCO_get + 198
        0x00001e9a:    2a32        2*      CMP      r2,#0x32
        0x00001e9c:    d01d        ..      BEQ      0x1eda ; SCO_get + 206
        0x00001e9e:    e021        !.      B        0x1ee4 ; SCO_get + 216
        0x00001ea0:    f8b0104a    ..J.    LDRH     r1,[r0,#0x4a]
        0x00001ea4:    3101        .1      ADDS     r1,#1
        0x00001ea6:    f8a0104a    ..J.    STRH     r1,[r0,#0x4a]
        0x00001eaa:    2100        .!      MOVS     r1,#0
        0x00001eac:    e032        2.      B        0x1f14 ; SCO_get + 264
        0x00001eae:    2100        .!      MOVS     r1,#0
        0x00001eb0:    f8a0104a    ..J.    STRH     r1,[r0,#0x4a]
        0x00001eb4:    f8a0104c    ..L.    STRH     r1,[r0,#0x4c]
        0x00001eb8:    f44f7180    O..q    MOV      r1,#0x100
        0x00001ebc:    e02a        *.      B        0x1f14 ; SCO_get + 264
        0x00001ebe:    2a02        .*      CMP      r2,#2
        0x00001ec0:    d00a        ..      BEQ      0x1ed8 ; SCO_get + 204
        0x00001ec2:    2a04        .*      CMP      r2,#4
        0x00001ec4:    d10e        ..      BNE      0x1ee4 ; SCO_get + 216
        0x00001ec6:    ed910a00    ....    VLDR     s0,[r1,#0]
        0x00001eca:    e008        ..      B        0x1ede ; SCO_get + 210
        0x00001ecc:    ed910a00    ....    VLDR     s0,[r1,#0]
        0x00001ed0:    e00c        ..      B        0x1eec ; SCO_get + 224
        0x00001ed2:    ed910a00    ....    VLDR     s0,[r1,#0]
        0x00001ed6:    e00b        ..      B        0x1ef0 ; SCO_get + 228
        0x00001ed8:    8809        ..      LDRH     r1,[r1,#0]
        0x00001eda:    ee001a10    ....    VMOV     s0,r1
        0x00001ede:    eeb80a40    ..@.    VCVT.F32.U32 s0,s0
        0x00001ee2:    e005        ..      B        0x1ef0 ; SCO_get + 228
        0x00001ee4:    f9b11000    ....    LDRSH    r1,[r1,#0]
        0x00001ee8:    ee001a10    ....    VMOV     s0,r1
        0x00001eec:    eeb80ac0    ....    VCVT.F32.S32 s0,s0
        0x00001ef0:    ed800a10    ....    VSTR     s0,[r0,#0x40]
        0x00001ef4:    f9b0104a    ..J.    LDRSH    r1,[r0,#0x4a]
        0x00001ef8:    f8b0204a    ..J     LDRH     r2,[r0,#0x4a]
        0x00001efc:    f0210101    !...    BIC      r1,r1,#1
        0x00001f00:    1c53        S.      ADDS     r3,r2,#1
        0x00001f02:    4401        .D      ADD      r1,r1,r0
        0x00001f04:    f8a0304a    ..J0    STRH     r3,[r0,#0x4a]
        0x00001f08:    f8b10040    ..@.    LDRH     r0,[r1,#0x40]
        0x00001f0c:    07d1        ..      LSLS     r1,r2,#31
        0x00001f0e:    bf0c        ..      ITE      EQ
        0x00001f10:    b2c1        ..      UXTBEQ   r1,r0
        0x00001f12:    0a01        ..      LSRNE    r1,r0,#8
        0x00001f14:    4608        .F      MOV      r0,r1
        0x00001f16:    4770        pG      BX       lr
    $d.12
        0x00001f18:    7f800000    ....    DCD    2139095040
        0x00001f1c:    00000000    ....    DCD    0
    $t.0
    SysTick_Handler
        0x00001f20:    f2400070    @.p.    MOVW     r0,#0x70
        0x00001f24:    f2c20000    ....    MOVT     r0,#0x2000
        0x00001f28:    6801        .h      LDR      r1,[r0,#0]
        0x00001f2a:    3101        .1      ADDS     r1,#1
        0x00001f2c:    6001        .`      STR      r1,[r0,#0]
        0x00001f2e:    4770        pG      BX       lr
    SystemInit
        0x00001f30:    f2400000    @...    MOVW     r0,#0
        0x00001f34:    f64e5108    N..Q    MOV      r1,#0xed08
        0x00001f38:    f2c00000    ....    MOVT     r0,#0
        0x00001f3c:    f2ce0100    ....    MOVT     r1,#0xe000
        0x00001f40:    6008        .`      STR      r0,[r1,#0]
        0x00001f42:    f8d10080    ....    LDR      r0,[r1,#0x80]
        0x00001f46:    f4400070    @.p.    ORR      r0,r0,#0xf00000
        0x00001f4a:    f8c10080    ....    STR      r0,[r1,#0x80]
        0x00001f4e:    f2400004    @...    MOVW     r0,#4
        0x00001f52:    f24e1100    N...    MOVW     r1,#0xe100
        0x00001f56:    f2c20000    ....    MOVT     r0,#0x2000
        0x00001f5a:    f2c051f5    ...Q    MOVT     r1,#0x5f5
        0x00001f5e:    6001        .`      STR      r1,[r0,#0]
        0x00001f60:    4770        pG      BX       lr
    UART_DeInit
        0x00001f62:    b510        ..      PUSH     {r4,lr}
        0x00001f64:    f1b02f40    ..@/    CMP      r0,#0x40004000
        0x00001f68:    d00e        ..      BEQ      0x1f88 ; UART_DeInit + 38
        0x00001f6a:    f24f0100    O...    MOVW     r1,#0xf000
        0x00001f6e:    f2c40100    ....    MOVT     r1,#0x4000
        0x00001f72:    4288        .B      CMP      r0,r1
        0x00001f74:    d00a        ..      BEQ      0x1f8c ; UART_DeInit + 42
        0x00001f76:    f2450100    E...    MOVW     r1,#0x5000
        0x00001f7a:    f2c40100    ....    MOVT     r1,#0x4000
        0x00001f7e:    4288        .B      CMP      r0,r1
        0x00001f80:    bf18        ..      IT       NE
        0x00001f82:    bd10        ..      POPNE    {r4,pc}
        0x00001f84:    2410        .$      MOVS     r4,#0x10
        0x00001f86:    e003        ..      B        0x1f90 ; UART_DeInit + 46
        0x00001f88:    2408        .$      MOVS     r4,#8
        0x00001f8a:    e001        ..      B        0x1f90 ; UART_DeInit + 46
        0x00001f8c:    f44f6400    O..d    MOV      r4,#0x800
        0x00001f90:    4620         F      MOV      r0,r4
        0x00001f92:    2101        .!      MOVS     r1,#1
        0x00001f94:    f7fffb8e    ....    BL       RCC_APB1PeriphResetCmd ; 0x16b4
        0x00001f98:    4620         F      MOV      r0,r4
        0x00001f9a:    2100        .!      MOVS     r1,#0
        0x00001f9c:    e8bd4010    ...@    POP      {r4,lr}
        0x00001fa0:    f7ffbb88    ....    B        RCC_APB1PeriphResetCmd ; 0x16b4
    UART_Init
        0x00001fa4:    f2400204    @...    MOVW     r2,#4
        0x00001fa8:    f2c20200    ....    MOVT     r2,#0x2000
        0x00001fac:    6812        .h      LDR      r2,[r2,#0]
        0x00001fae:    680b        .h      LDR      r3,[r1,#0]
        0x00001fb0:    fbb2f2f3    ....    UDIV     r2,r2,r3
        0x00001fb4:    6102        .a      STR      r2,[r0,#0x10]
        0x00001fb6:    7909        .y      LDRB     r1,[r1,#4]
        0x00001fb8:    6081        .`      STR      r1,[r0,#8]
        0x00001fba:    4770        pG      BX       lr
    _cz_strtoxl
        0x00001fbc:    b510        ..      PUSH     {r4,lr}
        0x00001fbe:    4602        .F      MOV      r2,r0
        0x00001fc0:    b101        ..      CBZ      r1,0x1fc4 ; _cz_strtoxl + 8
        0x00001fc2:    600a        .`      STR      r2,[r1,#0]
        0x00001fc4:    f6420cac    B...    MOV      r12,#0x28ac
        0x00001fc8:    f2c00c00    ....    MOVT     r12,#0
        0x00001fcc:    f8123b01    ...;    LDRB     r3,[r2],#1
        0x00001fd0:    f81c0023    ..#.    LDRB     r0,[r12,r3,LSL #2]
        0x00001fd4:    0700        ..      LSLS     r0,r0,#28
        0x00001fd6:    d4f9        ..      BMI      0x1fcc ; _cz_strtoxl + 16
        0x00001fd8:    2b2b        ++      CMP      r3,#0x2b
        0x00001fda:    bf08        ..      IT       EQ
        0x00001fdc:    f8123b01    ...;    LDRBEQ   r3,[r2],#1
        0x00001fe0:    2b2d        -+      CMP      r3,#0x2d
        0x00001fe2:    bf06        ..      ITTE     EQ
        0x00001fe4:    f8123b01    ...;    LDRBEQ   r3,[r2],#1
        0x00001fe8:    f04f0e01    O...    MOVEQ    lr,#1
        0x00001fec:    f04f0e00    O...    MOVNE    lr,#0
        0x00001ff0:    2b2b        ++      CMP      r3,#0x2b
        0x00001ff2:    bf08        ..      IT       EQ
        0x00001ff4:    f8123b01    ...;    LDRBEQ   r3,[r2],#1
        0x00001ff8:    2000        .       MOVS     r0,#0
        0x00001ffa:    bf00        ..      NOP      
        0x00001ffc:    f1a30430    ..0.    SUB      r4,r3,#0x30
        0x00002000:    2c0a        .,      CMP      r4,#0xa
        0x00002002:    d309        ..      BCC      0x2018 ; _cz_strtoxl + 92
        0x00002004:    f85c3023    \.#0    LDR      r3,[r12,r3,LSL #2]
        0x00002008:    079c        ..      LSLS     r4,r3,#30
        0x0000200a:    d019        ..      BEQ      0x2040 ; _cz_strtoxl + 132
        0x0000200c:    f06f0436    o.6.    MVN      r4,#0x36
        0x00002010:    fa54f493    T...    UXTAB    r4,r4,r3,ROR #8
        0x00002014:    2c09        .,      CMP      r4,#9
        0x00002016:    d813        ..      BHI      0x2040 ; _cz_strtoxl + 132
        0x00002018:    f6491399    I...    MOV      r3,#0x9999
        0x0000201c:    f6c11399    ....    MOVT     r3,#0x1999
        0x00002020:    4298        .B      CMP      r0,r3
        0x00002022:    d807        ..      BHI      0x2034 ; _cz_strtoxl + 120
        0x00002024:    eb000080    ....    ADD      r0,r0,r0,LSL #2
        0x00002028:    f04e0e02    N...    ORR      lr,lr,#2
        0x0000202c:    eb040040    ..@.    ADD      r0,r4,r0,LSL #1
        0x00002030:    e003        ..      B        0x203a ; _cz_strtoxl + 126
        0x00002032:    bf00        ..      NOP      
        0x00002034:    f04e0e06    N...    ORR      lr,lr,#6
        0x00002038:    b159        Y.      CBZ      r1,0x2052 ; _cz_strtoxl + 150
        0x0000203a:    f8123b01    ...;    LDRB     r3,[r2],#1
        0x0000203e:    e7dd        ..      B        0x1ffc ; _cz_strtoxl + 64
        0x00002040:    ea5f738e    _..s    LSLS     r3,lr,#30
        0x00002044:    f1a20201    ....    SUB      r2,r2,#1
        0x00002048:    d404        ..      BMI      0x2054 ; _cz_strtoxl + 152
        0x0000204a:    f04f0000    O...    MOV      r0,#0
        0x0000204e:    bb61        a.      CBNZ     r1,0x20aa ; _cz_strtoxl + 238
        0x00002050:    e02c        ,.      B        0x20ac ; _cz_strtoxl + 240
        0x00002052:    3a01        .:      SUBS     r2,#1
        0x00002054:    f00e0309    ....    AND      r3,lr,#9
        0x00002058:    2b09        .+      CMP      r3,#9
        0x0000205a:    d101        ..      BNE      0x2060 ; _cz_strtoxl + 164
        0x0000205c:    2000        .       MOVS     r0,#0
        0x0000205e:    e023        #.      B        0x20a8 ; _cz_strtoxl + 236
        0x00002060:    ea5f734e    _.Ns    LSLS     r3,lr,#29
        0x00002064:    f00e0408    ....    AND      r4,lr,#8
        0x00002068:    f00e0301    ....    AND      r3,lr,#1
        0x0000206c:    d412        ..      BMI      0x2094 ; _cz_strtoxl + 216
        0x0000206e:    b9dc        ..      CBNZ     r4,0x20a8 ; _cz_strtoxl + 236
        0x00002070:    f1b04f00    ...O    CMP      r0,#0x80000000
        0x00002074:    f04f0c00    O...    MOV      r12,#0
        0x00002078:    f04f0400    O...    MOV      r4,#0
        0x0000207c:    bf98        ..      IT       LS
        0x0000207e:    f04f0c01    O...    MOVLS    r12,#1
        0x00002082:    f1b03fff    ...?    CMP      r0,#0xffffffff
        0x00002086:    bfc8        ..      IT       GT
        0x00002088:    2401        .$      MOVGT    r4,#1
        0x0000208a:    2b00        .+      CMP      r3,#0
        0x0000208c:    bf18        ..      IT       NE
        0x0000208e:    4664        dF      MOVNE    r4,r12
        0x00002090:    b10c        ..      CBZ      r4,0x2096 ; _cz_strtoxl + 218
        0x00002092:    e009        ..      B        0x20a8 ; _cz_strtoxl + 236
        0x00002094:    b934        4.      CBNZ     r4,0x20a4 ; _cz_strtoxl + 232
        0x00002096:    f04f4000    O..@    MOV      r0,#0x80000000
        0x0000209a:    2b00        .+      CMP      r3,#0
        0x0000209c:    bf08        ..      IT       EQ
        0x0000209e:    f06f4000    o..@    MVNEQ    r0,#0x80000000
        0x000020a2:    e001        ..      B        0x20a8 ; _cz_strtoxl + 236
        0x000020a4:    f04f30ff    O..0    MOV      r0,#0xffffffff
        0x000020a8:    b101        ..      CBZ      r1,0x20ac ; _cz_strtoxl + 240
        0x000020aa:    600a        .`      STR      r2,[r1,#0]
        0x000020ac:    ea5f71ce    _..q    LSLS     r1,lr,#31
        0x000020b0:    bf18        ..      IT       NE
        0x000020b2:    4240        @B      RSBNE    r0,r0,#0
        0x000020b4:    bd10        ..      POP      {r4,pc}
        0x000020b6:    0000        ..      MOVS     r0,r0
    delay_ms
        0x000020b8:    b150        P.      CBZ      r0,0x20d0 ; delay_ms + 24
        0x000020ba:    f24e0210    N...    MOV      r2,#0xe010
        0x000020be:    2100        .!      MOVS     r1,#0
        0x000020c0:    f2ce0200    ....    MOVT     r2,#0xe000
        0x000020c4:    6813        .h      LDR      r3,[r2,#0]
        0x000020c6:    03db        ..      LSLS     r3,r3,#15
        0x000020c8:    d5fc        ..      BPL      0x20c4 ; delay_ms + 12
        0x000020ca:    3101        .1      ADDS     r1,#1
        0x000020cc:    4281        .B      CMP      r1,r0
        0x000020ce:    d1f9        ..      BNE      0x20c4 ; delay_ms + 12
        0x000020d0:    4770        pG      BX       lr
        0x000020d2:    0000        ..      MOVS     r0,r0
    fputc
        0x000020d4:    f2450100    E...    MOVW     r1,#0x5000
        0x000020d8:    f2c40100    ....    MOVT     r1,#0x4000
        0x000020dc:    684a        Jh      LDR      r2,[r1,#4]
        0x000020de:    07d2        ..      LSLS     r2,r2,#31
        0x000020e0:    d1fc        ..      BNE      0x20dc ; fputc + 8
        0x000020e2:    b2c0        ..      UXTB     r0,r0
        0x000020e4:    6008        .`      STR      r0,[r1,#0]
        0x000020e6:    4770        pG      BX       lr
    main
        0x000020e8:    b082        ..      SUB      sp,sp,#8
        0x000020ea:    f2410a00    A...    MOVW     r10,#0x1000
        0x000020ee:    f2c40a00    ....    MOVT     r10,#0x4000
        0x000020f2:    f50a4870    ..pH    ADD      r8,r10,#0xf000
        0x000020f6:    f64e5b0c    N..[    MOV      r11,#0xed0c
        0x000020fa:    4640        @F      MOV      r0,r8
        0x000020fc:    f2ce0b00    ....    MOVT     r11,#0xe000
        0x00002100:    f7fefe28    ..(.    BL       GPIO_DeInit ; 0xd54
        0x00002104:    f2400004    @...    MOVW     r0,#4
        0x00002108:    f2c20000    ....    MOVT     r0,#0x2000
        0x0000210c:    6800        .h      LDR      r0,[r0,#0]
        0x0000210e:    f64451d3    D..Q    MOV      r1,#0x4dd3
        0x00002112:    f2c10162    ..b.    MOVT     r1,#0x1062
        0x00002116:    fba00101    ....    UMULL    r0,r1,r0,r1
        0x0000211a:    f06f0001    o...    MVN      r0,#1
        0x0000211e:    eb001091    ....    ADD      r0,r0,r1,LSR #6
        0x00002122:    2600        .&      MOVS     r6,#0
        0x00002124:    ebb66f10    ...o    CMP      r6,r0,LSR #24
        0x00002128:    d10a        ..      BNE      0x2140 ; main + 88
        0x0000212a:    f24e0110    N...    MOV      r1,#0xe010
        0x0000212e:    f2ce0100    ....    MOVT     r1,#0xe000
        0x00002132:    6048        H`      STR      r0,[r1,#4]
        0x00002134:    20e0        .       MOVS     r0,#0xe0
        0x00002136:    f88b0017    ....    STRB     r0,[r11,#0x17]
        0x0000213a:    2007        .       MOVS     r0,#7
        0x0000213c:    608e        .`      STR      r6,[r1,#8]
        0x0000213e:    6008        .`      STR      r0,[r1,#0]
        0x00002140:    f50a4480    ...D    ADD      r4,r10,#0x4000
        0x00002144:    2700        .'      MOVS     r7,#0
        0x00002146:    2500        .%      MOVS     r5,#0
        0x00002148:    4620         F      MOV      r0,r4
        0x0000214a:    f2ca0702    ....    MOVT     r7,#0xa002
        0x0000214e:    f2ca0501    ....    MOVT     r5,#0xa001
        0x00002152:    f7ffff06    ....    BL       UART_DeInit ; 0x1f62
        0x00002156:    4640        @F      MOV      r0,r8
        0x00002158:    2110        .!      MOVS     r1,#0x10
        0x0000215a:    2201        ."      MOVS     r2,#1
        0x0000215c:    f04f0901    O...    MOV      r9,#1
        0x00002160:    f7fefe0e    ....    BL       GPIO_PinRemapConfig ; 0xd80
        0x00002164:    4640        @F      MOV      r0,r8
        0x00002166:    2120         !      MOVS     r1,#0x20
        0x00002168:    2201        ."      MOVS     r2,#1
        0x0000216a:    f7fefe09    ....    BL       GPIO_PinRemapConfig ; 0xd80
        0x0000216e:    f44f30e1    O..0    MOV      r0,#0x1c200
        0x00002172:    9000        ..      STR      r0,[sp,#0]
        0x00002174:    2003        .       MOVS     r0,#3
        0x00002176:    f88d0004    ....    STRB     r0,[sp,#4]
        0x0000217a:    4669        iF      MOV      r1,sp
        0x0000217c:    4620         F      MOV      r0,r4
        0x0000217e:    f7ffff11    ....    BL       UART_Init ; 0x1fa4
        0x00002182:    f2400404    @...    MOVW     r4,#4
        0x00002186:    703e        >p      STRB     r6,[r7,#0]
        0x00002188:    f2c20400    ....    MOVT     r4,#0x2000
        0x0000218c:    6820         h      LDR      r0,[r4,#0]
        0x0000218e:    f24b31c5    K..1    MOV      r1,#0xb3c5
        0x00002192:    f2c911a2    ....    MOVT     r1,#0x91a2
        0x00002196:    fba00101    ....    UMULL    r0,r1,r0,r1
        0x0000219a:    f04f30ff    O..0    MOV      r0,#0xffffffff
        0x0000219e:    eb0040d1    ...@    ADD      r0,r0,r1,LSR #19
        0x000021a2:    f64f01ff    O...    MOV      r1,#0xf8ff
        0x000021a6:    8078        x.      STRH     r0,[r7,#2]
        0x000021a8:    f8879000    ....    STRB     r9,[r7,#0]
        0x000021ac:    f8db0000    ....    LDR      r0,[r11,#0]
        0x000021b0:    4008        .@      ANDS     r0,r0,r1
        0x000021b2:    f0406080    @..`    ORR      r0,r0,#0x4000000
        0x000021b6:    f04070fd    @..p    ORR      r0,r0,#0x1fa0000
        0x000021ba:    f8cb0000    ....    STR      r0,[r11,#0]
        0x000021be:    f000f928    ..(.    BL       scd_init_1 ; 0x2412
        0x000021c2:    f7fff98b    ....    BL       LCD_Init ; 0x14dc
        0x000021c6:    f7fefe93    ....    BL       GT911_init ; 0xef0
        0x000021ca:    2064        d       MOVS     r0,#0x64
        0x000021cc:    2164        d!      MOVS     r1,#0x64
        0x000021ce:    2214        ."      MOVS     r2,#0x14
        0x000021d0:    f7fff842    ..B.    BL       LCD_Draw_Circle ; 0x1258
        0x000021d4:    20c8        .       MOVS     r0,#0xc8
        0x000021d6:    2164        d!      MOVS     r1,#0x64
        0x000021d8:    2214        ."      MOVS     r2,#0x14
        0x000021da:    f7fff83d    ..=.    BL       LCD_Draw_Circle ; 0x1258
        0x000021de:    2064        d       MOVS     r0,#0x64
        0x000021e0:    21c8        .!      MOVS     r1,#0xc8
        0x000021e2:    2214        ."      MOVS     r2,#0x14
        0x000021e4:    f7fff838    ..8.    BL       LCD_Draw_Circle ; 0x1258
        0x000021e8:    f8ca6000    ...`    STR      r6,[r10,#0]
        0x000021ec:    f8ca6004    ...`    STR      r6,[r10,#4]
        0x000021f0:    6820         h      LDR      r0,[r4,#0]
        0x000021f2:    f248511f    H..Q    MOV      r1,#0x851f
        0x000021f6:    f2c511eb    ....    MOVT     r1,#0x51eb
        0x000021fa:    fba00101    ....    UMULL    r0,r1,r0,r1
        0x000021fe:    0948        H.      LSRS     r0,r1,#5
        0x00002200:    f2400670    @.p.    MOVW     r6,#0x70
        0x00002204:    f24004ec    @...    MOVW     r4,#0xec
        0x00002208:    f2401864    @.d.    MOVW     r8,#0x164
        0x0000220c:    f8ca0008    ....    STR      r0,[r10,#8]
        0x00002210:    2009        .       MOVS     r0,#9
        0x00002212:    f2c20600    ....    MOVT     r6,#0x2000
        0x00002216:    f2c20400    ....    MOVT     r4,#0x2000
        0x0000221a:    f2c20800    ....    MOVT     r8,#0x2000
        0x0000221e:    f8ca900c    ....    STR      r9,[r10,#0xc]
        0x00002222:    f8ca0000    ....    STR      r0,[r10,#0]
        0x00002226:    bf00        ..      NOP      
        0x00002228:    f8da000c    ....    LDR      r0,[r10,#0xc]
        0x0000222c:    bb70        p.      CBNZ     r0,0x228c ; main + 420
        0x0000222e:    6830        0h      LDR      r0,[r6,#0]
        0x00002230:    f000000f    ....    AND      r0,r0,#0xf
        0x00002234:    7028        (p      STRB     r0,[r5,#0]
        0x00002236:    6830        0h      LDR      r0,[r6,#0]
        0x00002238:    b2c0        ..      UXTB     r0,r0
        0x0000223a:    0900        ..      LSRS     r0,r0,#4
        0x0000223c:    7068        hp      STRB     r0,[r5,#1]
        0x0000223e:    6830        0h      LDR      r0,[r6,#0]
        0x00002240:    f3c02003    ...     UBFX     r0,r0,#8,#4
        0x00002244:    70a8        .p      STRB     r0,[r5,#2]
        0x00002246:    6830        0h      LDR      r0,[r6,#0]
        0x00002248:    f3c03003    ...0    UBFX     r0,r0,#12,#4
        0x0000224c:    70e8        .p      STRB     r0,[r5,#3]
        0x0000224e:    6830        0h      LDR      r0,[r6,#0]
        0x00002250:    f3c04003    ...@    UBFX     r0,r0,#16,#4
        0x00002254:    7128        (q      STRB     r0,[r5,#4]
        0x00002256:    6830        0h      LDR      r0,[r6,#0]
        0x00002258:    f3c05003    ...P    UBFX     r0,r0,#20,#4
        0x0000225c:    7168        hq      STRB     r0,[r5,#5]
        0x0000225e:    6830        0h      LDR      r0,[r6,#0]
        0x00002260:    f3c06003    ...`    UBFX     r0,r0,#24,#4
        0x00002264:    71a8        .q      STRB     r0,[r5,#6]
        0x00002266:    6830        0h      LDR      r0,[r6,#0]
        0x00002268:    0f00        ..      LSRS     r0,r0,#28
        0x0000226a:    71e8        .q      STRB     r0,[r5,#7]
        0x0000226c:    7838        8x      LDRB     r0,[r7,#0]
        0x0000226e:    0780        ..      LSLS     r0,r0,#30
        0x00002270:    d408        ..      BMI      0x2284 ; main + 412
        0x00002272:    4620         F      MOV      r0,r4
        0x00002274:    f000f91b    ....    BL       scd_send1Byte ; 0x24ae
        0x00002278:    7078        xp      STRB     r0,[r7,#1]
        0x0000227a:    e7f7        ..      B        0x226c ; main + 388
        0x0000227c:    7879        yx      LDRB     r1,[r7,#1]
        0x0000227e:    4620         F      MOV      r0,r4
        0x00002280:    f7fffb24    ..$.    BL       SCD_Rev1Byte ; 0x18cc
        0x00002284:    7838        8x      LDRB     r0,[r7,#0]
        0x00002286:    06c0        ..      LSLS     r0,r0,#27
        0x00002288:    d5f8        ..      BPL      0x227c ; main + 404
        0x0000228a:    e7cd        ..      B        0x2228 ; main + 320
        0x0000228c:    4640        @F      MOV      r0,r8
        0x0000228e:    f8ca900c    ....    STR      r9,[r10,#0xc]
        0x00002292:    f7fefd91    ....    BL       GT911_Scan ; 0xdb8
        0x00002296:    2800        .(      CMP      r0,#0
        0x00002298:    d1c6        ..      BNE      0x2228 ; main + 320
        0x0000229a:    f8982029    ..)     LDRB     r2,[r8,#0x29]
        0x0000229e:    f8b80002    ....    LDRH     r0,[r8,#2]
        0x000022a2:    f8b81004    ....    LDRH     r1,[r8,#4]
        0x000022a6:    2a02        .*      CMP      r2,#2
        0x000022a8:    d106        ..      BNE      0x22b8 ; main + 464
        0x000022aa:    f8b8200a    ...     LDRH     r2,[r8,#0xa]
        0x000022ae:    f8b8300c    ...0    LDRH     r3,[r8,#0xc]
        0x000022b2:    f7feff35    ..5.    BL       LCD_DrawLine ; 0x1120
        0x000022b6:    e7b7        ..      B        0x2228 ; main + 320
        0x000022b8:    f44f4278    O.xB    MOV      r2,#0xf800
        0x000022bc:    f7feffa6    ....    BL       LCD_DrawPoint_color ; 0x120c
        0x000022c0:    e7b2        ..      B        0x2228 ; main + 320
        0x000022c2:    0000        ..      MOVS     r0,r0
    read_i2c
        0x000022c4:    e92d47f0    -..G    PUSH     {r4-r10,lr}
        0x000022c8:    f2400e00    @...    MOVW     lr,#0
        0x000022cc:    2204        ."      MOVS     r2,#4
        0x000022ce:    f64f7c4c    O.L|    MOV      r12,#0xff4c
        0x000022d2:    f2c40e01    ....    MOVT     lr,#0x4001
        0x000022d6:    f44f3180    O..1    MOV      r1,#0x10000
        0x000022da:    f04f0a00    O...    MOV      r10,#0
        0x000022de:    2407        .$      MOVS     r4,#7
        0x000022e0:    f04f4580    O..E    MOV      r5,#0x40000000
        0x000022e4:    2601        .&      MOVS     r6,#1
        0x000022e6:    f04f0909    O...    MOV      r9,#9
        0x000022ea:    f44f4800    O..H    MOV      r8,#0x8000
        0x000022ee:    f2c40200    ....    MOVT     r2,#0x4000
        0x000022f2:    2300        .#      MOVS     r3,#0
        0x000022f4:    f8ce1014    ....    STR      r1,[lr,#0x14]
        0x000022f8:    f8c5a000    ....    STR      r10,[r5,#0]
        0x000022fc:    6857        Wh      LDR      r7,[r2,#4]
        0x000022fe:    6017        .`      STR      r7,[r2,#0]
        0x00002300:    6096        .`      STR      r6,[r2,#8]
        0x00002302:    f8c59000    ....    STR      r9,[r5,#0]
        0x00002306:    bf00        ..      NOP      
        0x00002308:    6897        .h      LDR      r7,[r2,#8]
        0x0000230a:    2f00        ./      CMP      r7,#0
        0x0000230c:    d0fc        ..      BEQ      0x2308 ; read_i2c + 68
        0x0000230e:    f8c5a000    ....    STR      r10,[r5,#0]
        0x00002312:    6096        .`      STR      r6,[r2,#8]
        0x00002314:    f8ce8014    ....    STR      r8,[lr,#0x14]
        0x00002318:    f8c5a000    ....    STR      r10,[r5,#0]
        0x0000231c:    6857        Wh      LDR      r7,[r2,#4]
        0x0000231e:    6017        .`      STR      r7,[r2,#0]
        0x00002320:    6096        .`      STR      r6,[r2,#8]
        0x00002322:    f8c59000    ....    STR      r9,[r5,#0]
        0x00002326:    bf00        ..      NOP      
        0x00002328:    6897        .h      LDR      r7,[r2,#8]
        0x0000232a:    2f00        ./      CMP      r7,#0
        0x0000232c:    d0fc        ..      BEQ      0x2328 ; read_i2c + 100
        0x0000232e:    f8c5a000    ....    STR      r10,[r5,#0]
        0x00002332:    6096        .`      STR      r6,[r2,#8]
        0x00002334:    f8de7000    ...p    LDR      r7,[lr,#0]
        0x00002338:    043f        ?.      LSLS     r7,r7,#16
        0x0000233a:    d564        d.      BPL      0x2406 ; read_i2c + 322
        0x0000233c:    f8de7000    ...p    LDR      r7,[lr,#0]
        0x00002340:    f8ce8010    ....    STR      r8,[lr,#0x10]
        0x00002344:    f8c5a000    ....    STR      r10,[r5,#0]
        0x00002348:    6851        Qh      LDR      r1,[r2,#4]
        0x0000234a:    f3c74700    ...G    UBFX     r7,r7,#16,#1
        0x0000234e:    6011        .`      STR      r1,[r2,#0]
        0x00002350:    6096        .`      STR      r6,[r2,#8]
        0x00002352:    f8c59000    ....    STR      r9,[r5,#0]
        0x00002356:    bf00        ..      NOP      
        0x00002358:    6891        .h      LDR      r1,[r2,#8]
        0x0000235a:    2900        .)      CMP      r1,#0
        0x0000235c:    d0fc        ..      BEQ      0x2358 ; read_i2c + 148
        0x0000235e:    ea470343    G.C.    ORR      r3,r7,r3,LSL #1
        0x00002362:    2c00        .,      CMP      r4,#0
        0x00002364:    f1a40401    ....    SUB      r4,r4,#1
        0x00002368:    f8c5a000    ....    STR      r10,[r5,#0]
        0x0000236c:    6096        .`      STR      r6,[r2,#8]
        0x0000236e:    d1c3        ..      BNE      0x22f8 ; read_i2c + 52
        0x00002370:    f44f3180    O..1    MOV      r1,#0x10000
        0x00002374:    2800        .(      CMP      r0,#0
        0x00002376:    bf0c        ..      ITE      EQ
        0x00002378:    f8ce1010    ....    STREQ    r1,[lr,#0x10]
        0x0000237c:    f8ce1014    ....    STRNE    r1,[lr,#0x14]
        0x00002380:    f04f4180    O..A    MOV      r1,#0x40000000
        0x00002384:    2400        .$      MOVS     r4,#0
        0x00002386:    600c        .`      STR      r4,[r1,#0]
        0x00002388:    6854        Th      LDR      r4,[r2,#4]
        0x0000238a:    6014        .`      STR      r4,[r2,#0]
        0x0000238c:    2401        .$      MOVS     r4,#1
        0x0000238e:    6094        .`      STR      r4,[r2,#8]
        0x00002390:    2409        .$      MOVS     r4,#9
        0x00002392:    600c        .`      STR      r4,[r1,#0]
        0x00002394:    6891        .h      LDR      r1,[r2,#8]
        0x00002396:    2900        .)      CMP      r1,#0
        0x00002398:    d0fc        ..      BEQ      0x2394 ; read_i2c + 208
        0x0000239a:    f04f4180    O..A    MOV      r1,#0x40000000
        0x0000239e:    2400        .$      MOVS     r4,#0
        0x000023a0:    2501        .%      MOVS     r5,#1
        0x000023a2:    f44f4600    O..F    MOV      r6,#0x8000
        0x000023a6:    600c        .`      STR      r4,[r1,#0]
        0x000023a8:    6095        .`      STR      r5,[r2,#8]
        0x000023aa:    f8ce6014    ...`    STR      r6,[lr,#0x14]
        0x000023ae:    600c        .`      STR      r4,[r1,#0]
        0x000023b0:    6854        Th      LDR      r4,[r2,#4]
        0x000023b2:    6014        .`      STR      r4,[r2,#0]
        0x000023b4:    2409        .$      MOVS     r4,#9
        0x000023b6:    6095        .`      STR      r5,[r2,#8]
        0x000023b8:    600c        .`      STR      r4,[r1,#0]
        0x000023ba:    bf00        ..      NOP      
        0x000023bc:    6891        .h      LDR      r1,[r2,#8]
        0x000023be:    2900        .)      CMP      r1,#0
        0x000023c0:    d0fc        ..      BEQ      0x23bc ; read_i2c + 248
        0x000023c2:    f04f4180    O..A    MOV      r1,#0x40000000
        0x000023c6:    2500        .%      MOVS     r5,#0
        0x000023c8:    2401        .$      MOVS     r4,#1
        0x000023ca:    600d        .`      STR      r5,[r1,#0]
        0x000023cc:    6094        .`      STR      r4,[r2,#8]
        0x000023ce:    f8de6000    ...`    LDR      r6,[lr,#0]
        0x000023d2:    f3c64600    ...F    UBFX     r6,r6,#16,#1
        0x000023d6:    4286        .B      CMP      r6,r0
        0x000023d8:    d117        ..      BNE      0x240a ; read_i2c + 326
        0x000023da:    f44f4000    O..@    MOV      r0,#0x8000
        0x000023de:    f8ce0010    ....    STR      r0,[lr,#0x10]
        0x000023e2:    600d        .`      STR      r5,[r1,#0]
        0x000023e4:    6850        Ph      LDR      r0,[r2,#4]
        0x000023e6:    6010        .`      STR      r0,[r2,#0]
        0x000023e8:    2009        .       MOVS     r0,#9
        0x000023ea:    6094        .`      STR      r4,[r2,#8]
        0x000023ec:    6008        .`      STR      r0,[r1,#0]
        0x000023ee:    bf00        ..      NOP      
        0x000023f0:    6890        .h      LDR      r0,[r2,#8]
        0x000023f2:    2800        .(      CMP      r0,#0
        0x000023f4:    d0fc        ..      BEQ      0x23f0 ; read_i2c + 300
        0x000023f6:    f04f4080    O..@    MOV      r0,#0x40000000
        0x000023fa:    2100        .!      MOVS     r1,#0
        0x000023fc:    6001        .`      STR      r1,[r0,#0]
        0x000023fe:    2001        .       MOVS     r0,#1
        0x00002400:    6090        .`      STR      r0,[r2,#8]
        0x00002402:    469c        .F      MOV      r12,r3
        0x00002404:    e001        ..      B        0x240a ; read_i2c + 326
        0x00002406:    f10c0c13    ....    ADD      r12,r12,#0x13
        0x0000240a:    fa0ff08c    ....    SXTH     r0,r12
        0x0000240e:    e8bd87f0    ....    POP      {r4-r10,pc}
    scd_init_1
        0x00002412:    f24000ec    @...    MOVW     r0,#0xec
        0x00002416:    f2c20000    ....    MOVT     r0,#0x2000
        0x0000241a:    2100        .!      MOVS     r1,#0
        0x0000241c:    f242720f    B..r    MOV      r2,#0x270f
        0x00002420:    8001        ..      STRH     r1,[r0,#0]
        0x00002422:    8042        B.      STRH     r2,[r0,#2]
        0x00002424:    f240029c    @...    MOVW     r2,#0x9c
        0x00002428:    f2400374    @.t.    MOVW     r3,#0x74
        0x0000242c:    f2c20200    ....    MOVT     r2,#0x2000
        0x00002430:    f2c20300    ....    MOVT     r3,#0x2000
        0x00002434:    6282        .b      STR      r2,[r0,#0x28]
        0x00002436:    f2400208    @...    MOVW     r2,#8
        0x0000243a:    62c3        .b      STR      r3,[r0,#0x2c]
        0x0000243c:    f240030c    @...    MOVW     r3,#0xc
        0x00002440:    f2c20200    ....    MOVT     r2,#0x2000
        0x00002444:    f2c20300    ....    MOVT     r3,#0x2000
        0x00002448:    6302        .c      STR      r2,[r0,#0x30]
        0x0000244a:    f2400214    @...    MOVW     r2,#0x14
        0x0000244e:    6343        Cc      STR      r3,[r0,#0x34]
        0x00002450:    f64243d0    B..C    MOV      r3,#0x2cd0
        0x00002454:    f2c20200    ....    MOVT     r2,#0x2000
        0x00002458:    f2c00300    ....    MOVT     r3,#0
        0x0000245c:    e9c0230e    ...#    STRD     r2,r3,[r0,#0x38]
        0x00002460:    2209        ."      MOVS     r2,#9
        0x00002462:    f8a02044    ..D     STRH     r2,[r0,#0x44]
        0x00002466:    f8a01046    ..F.    STRH     r1,[r0,#0x46]
        0x0000246a:    f8a01048    ..H.    STRH     r1,[r0,#0x48]
        0x0000246e:    f8a0104c    ..L.    STRH     r1,[r0,#0x4c]
        0x00002472:    f8a0104a    ..J.    STRH     r1,[r0,#0x4a]
        0x00002476:    6401        .d      STR      r1,[r0,#0x40]
        0x00002478:    f8a0104e    ..N.    STRH     r1,[r0,#0x4e]
        0x0000247c:    f8a01050    ..P.    STRH     r1,[r0,#0x50]
        0x00002480:    f8a01054    ..T.    STRH     r1,[r0,#0x54]
        0x00002484:    f8a01052    ..R.    STRH     r1,[r0,#0x52]
        0x00002488:    f8a01056    ..V.    STRH     r1,[r0,#0x56]
        0x0000248c:    f8a01058    ..X.    STRH     r1,[r0,#0x58]
        0x00002490:    f8a0105a    ..Z.    STRH     r1,[r0,#0x5a]
        0x00002494:    f8a0105c    ..\.    STRH     r1,[r0,#0x5c]
        0x00002498:    f8a0105e    ..^.    STRH     r1,[r0,#0x5e]
        0x0000249c:    f8a01060    ..`.    STRH     r1,[r0,#0x60]
        0x000024a0:    f8a01062    ..b.    STRH     r1,[r0,#0x62]
        0x000024a4:    f8a01064    ..d.    STRH     r1,[r0,#0x64]
        0x000024a8:    f8a01066    ..f.    STRH     r1,[r0,#0x66]
        0x000024ac:    4770        pG      BX       lr
    scd_send1Byte
        0x000024ae:    b5b0        ..      PUSH     {r4,r5,r7,lr}
        0x000024b0:    4604        .F      MOV      r4,r0
        0x000024b2:    f9b0004e    ..N.    LDRSH    r0,[r0,#0x4e]
        0x000024b6:    f6420598    B...    MOV      r5,#0x2898
        0x000024ba:    f2c00500    ....    MOVT     r5,#0
        0x000024be:    f8551020    U. .    LDR      r1,[r5,r0,LSL #2]
        0x000024c2:    4620         F      MOV      r0,r4
        0x000024c4:    4788        .G      BLX      r1
        0x000024c6:    f5b07f80    ....    CMP      r0,#0x100
        0x000024ca:    d30e        ..      BCC      0x24ea ; scd_send1Byte + 60
        0x000024cc:    f8b40062    ..b.    LDRH     r0,[r4,#0x62]
        0x000024d0:    2800        .(      CMP      r0,#0
        0x000024d2:    bf0c        ..      ITE      EQ
        0x000024d4:    f8b40050    ..P.    LDRHEQ   r0,[r4,#0x50]
        0x000024d8:    2004        .       MOVNE    r0,#4
        0x000024da:    f8a4004e    ..N.    STRH     r0,[r4,#0x4e]
        0x000024de:    f9b4004e    ..N.    LDRSH    r0,[r4,#0x4e]
        0x000024e2:    f8551020    U. .    LDR      r1,[r5,r0,LSL #2]
        0x000024e6:    4620         F      MOV      r0,r4
        0x000024e8:    4788        .G      BLX      r1
        0x000024ea:    b2c0        ..      UXTB     r0,r0
        0x000024ec:    bdb0        ..      POP      {r4,r5,r7,pc}
        0x000024ee:    0000        ..      MOVS     r0,r0
    start_i2c
        0x000024f0:    b580        ..      PUSH     {r7,lr}
        0x000024f2:    f2400c00    @...    MOVW     r12,#0
        0x000024f6:    f2c40c01    ....    MOVT     r12,#0x4001
        0x000024fa:    f44f4000    O..@    MOV      r0,#0x8000
        0x000024fe:    f8cc0010    ....    STR      r0,[r12,#0x10]
        0x00002502:    f04f4280    O..B    MOV      r2,#0x40000000
        0x00002506:    2300        .#      MOVS     r3,#0
        0x00002508:    2004        .       MOVS     r0,#4
        0x0000250a:    f2c40000    ....    MOVT     r0,#0x4000
        0x0000250e:    6013        .`      STR      r3,[r2,#0]
        0x00002510:    6843        Ch      LDR      r3,[r0,#4]
        0x00002512:    6003        .`      STR      r3,[r0,#0]
        0x00002514:    2301        .#      MOVS     r3,#1
        0x00002516:    6083        .`      STR      r3,[r0,#8]
        0x00002518:    2309        .#      MOVS     r3,#9
        0x0000251a:    6013        .`      STR      r3,[r2,#0]
        0x0000251c:    6882        .h      LDR      r2,[r0,#8]
        0x0000251e:    2a00        .*      CMP      r2,#0
        0x00002520:    d0fc        ..      BEQ      0x251c ; start_i2c + 44
        0x00002522:    f04f4280    O..B    MOV      r2,#0x40000000
        0x00002526:    2300        .#      MOVS     r3,#0
        0x00002528:    f04f0e01    O...    MOV      lr,#1
        0x0000252c:    f44f3180    O..1    MOV      r1,#0x10000
        0x00002530:    6013        .`      STR      r3,[r2,#0]
        0x00002532:    f8c0e008    ....    STR      lr,[r0,#8]
        0x00002536:    f8cc1014    ....    STR      r1,[r12,#0x14]
        0x0000253a:    6013        .`      STR      r3,[r2,#0]
        0x0000253c:    6841        Ah      LDR      r1,[r0,#4]
        0x0000253e:    6001        .`      STR      r1,[r0,#0]
        0x00002540:    2109        .!      MOVS     r1,#9
        0x00002542:    f8c0e008    ....    STR      lr,[r0,#8]
        0x00002546:    6011        .`      STR      r1,[r2,#0]
        0x00002548:    6881        .h      LDR      r1,[r0,#8]
        0x0000254a:    2900        .)      CMP      r1,#0
        0x0000254c:    d0fc        ..      BEQ      0x2548 ; start_i2c + 88
        0x0000254e:    f04f4180    O..A    MOV      r1,#0x40000000
        0x00002552:    2200        ."      MOVS     r2,#0
        0x00002554:    f04f0e01    O...    MOV      lr,#1
        0x00002558:    f44f4300    O..C    MOV      r3,#0x8000
        0x0000255c:    600a        .`      STR      r2,[r1,#0]
        0x0000255e:    f8c0e008    ....    STR      lr,[r0,#8]
        0x00002562:    f8cc3014    ...0    STR      r3,[r12,#0x14]
        0x00002566:    600a        .`      STR      r2,[r1,#0]
        0x00002568:    6842        Bh      LDR      r2,[r0,#4]
        0x0000256a:    6002        .`      STR      r2,[r0,#0]
        0x0000256c:    2209        ."      MOVS     r2,#9
        0x0000256e:    f8c0e008    ....    STR      lr,[r0,#8]
        0x00002572:    600a        .`      STR      r2,[r1,#0]
        0x00002574:    6881        .h      LDR      r1,[r0,#8]
        0x00002576:    2900        .)      CMP      r1,#0
        0x00002578:    d0fc        ..      BEQ      0x2574 ; start_i2c + 132
        0x0000257a:    f04f4180    O..A    MOV      r1,#0x40000000
        0x0000257e:    2200        ."      MOVS     r2,#0
        0x00002580:    600a        .`      STR      r2,[r1,#0]
        0x00002582:    2101        .!      MOVS     r1,#1
        0x00002584:    6081        .`      STR      r1,[r0,#8]
        0x00002586:    f8dc1000    ....    LDR      r1,[r12,#0]
        0x0000258a:    0409        ..      LSLS     r1,r1,#16
        0x0000258c:    d403        ..      BMI      0x2596 ; start_i2c + 166
        0x0000258e:    f06f0066    o.f.    MVN      r0,#0x66
        0x00002592:    1d01        ..      ADDS     r1,r0,#4
        0x00002594:    e033        3.      B        0x25fe ; start_i2c + 270
        0x00002596:    f8dc1000    ....    LDR      r1,[r12,#0]
        0x0000259a:    03c9        ..      LSLS     r1,r1,#15
        0x0000259c:    d402        ..      BMI      0x25a4 ; start_i2c + 180
        0x0000259e:    f64f7199    O..q    MOV      r1,#0xff99
        0x000025a2:    e02c        ,.      B        0x25fe ; start_i2c + 270
        0x000025a4:    f44f3180    O..1    MOV      r1,#0x10000
        0x000025a8:    f8cc1010    ....    STR      r1,[r12,#0x10]
        0x000025ac:    f04f4180    O..A    MOV      r1,#0x40000000
        0x000025b0:    2200        ."      MOVS     r2,#0
        0x000025b2:    600a        .`      STR      r2,[r1,#0]
        0x000025b4:    6842        Bh      LDR      r2,[r0,#4]
        0x000025b6:    6002        .`      STR      r2,[r0,#0]
        0x000025b8:    2201        ."      MOVS     r2,#1
        0x000025ba:    6082        .`      STR      r2,[r0,#8]
        0x000025bc:    2209        ."      MOVS     r2,#9
        0x000025be:    600a        .`      STR      r2,[r1,#0]
        0x000025c0:    6881        .h      LDR      r1,[r0,#8]
        0x000025c2:    2900        .)      CMP      r1,#0
        0x000025c4:    d0fc        ..      BEQ      0x25c0 ; start_i2c + 208
        0x000025c6:    f04f4180    O..A    MOV      r1,#0x40000000
        0x000025ca:    2200        ."      MOVS     r2,#0
        0x000025cc:    f04f0e01    O...    MOV      lr,#1
        0x000025d0:    f44f4300    O..C    MOV      r3,#0x8000
        0x000025d4:    600a        .`      STR      r2,[r1,#0]
        0x000025d6:    f8c0e008    ....    STR      lr,[r0,#8]
        0x000025da:    f8cc3010    ...0    STR      r3,[r12,#0x10]
        0x000025de:    600a        .`      STR      r2,[r1,#0]
        0x000025e0:    6842        Bh      LDR      r2,[r0,#4]
        0x000025e2:    6002        .`      STR      r2,[r0,#0]
        0x000025e4:    2209        ."      MOVS     r2,#9
        0x000025e6:    f8c0e008    ....    STR      lr,[r0,#8]
        0x000025ea:    600a        .`      STR      r2,[r1,#0]
        0x000025ec:    6881        .h      LDR      r1,[r0,#8]
        0x000025ee:    2900        .)      CMP      r1,#0
        0x000025f0:    d0fc        ..      BEQ      0x25ec ; start_i2c + 252
        0x000025f2:    f04f4280    O..B    MOV      r2,#0x40000000
        0x000025f6:    2100        .!      MOVS     r1,#0
        0x000025f8:    6011        .`      STR      r1,[r2,#0]
        0x000025fa:    2201        ."      MOVS     r2,#1
        0x000025fc:    6082        .`      STR      r2,[r0,#8]
        0x000025fe:    b208        ..      SXTH     r0,r1
        0x00002600:    bd80        ..      POP      {r7,pc}
        0x00002602:    0000        ..      MOVS     r0,r0
    stop_i2c
        0x00002604:    b580        ..      PUSH     {r7,lr}
        0x00002606:    f2400c00    @...    MOVW     r12,#0
        0x0000260a:    f2c40c01    ....    MOVT     r12,#0x4001
        0x0000260e:    f44f3180    O..1    MOV      r1,#0x10000
        0x00002612:    f8cc1010    ....    STR      r1,[r12,#0x10]
        0x00002616:    f04f4280    O..B    MOV      r2,#0x40000000
        0x0000261a:    2300        .#      MOVS     r3,#0
        0x0000261c:    2104        .!      MOVS     r1,#4
        0x0000261e:    f2c40100    ....    MOVT     r1,#0x4000
        0x00002622:    6013        .`      STR      r3,[r2,#0]
        0x00002624:    684b        Kh      LDR      r3,[r1,#4]
        0x00002626:    600b        .`      STR      r3,[r1,#0]
        0x00002628:    2301        .#      MOVS     r3,#1
        0x0000262a:    608b        .`      STR      r3,[r1,#8]
        0x0000262c:    2309        .#      MOVS     r3,#9
        0x0000262e:    6013        .`      STR      r3,[r2,#0]
        0x00002630:    688a        .h      LDR      r2,[r1,#8]
        0x00002632:    2a00        .*      CMP      r2,#0
        0x00002634:    d0fc        ..      BEQ      0x2630 ; stop_i2c + 44
        0x00002636:    f04f4280    O..B    MOV      r2,#0x40000000
        0x0000263a:    2300        .#      MOVS     r3,#0
        0x0000263c:    f04f0e01    O...    MOV      lr,#1
        0x00002640:    f44f4000    O..@    MOV      r0,#0x8000
        0x00002644:    6013        .`      STR      r3,[r2,#0]
        0x00002646:    f8c1e008    ....    STR      lr,[r1,#8]
        0x0000264a:    f8cc0014    ....    STR      r0,[r12,#0x14]
        0x0000264e:    6013        .`      STR      r3,[r2,#0]
        0x00002650:    6848        Hh      LDR      r0,[r1,#4]
        0x00002652:    6008        .`      STR      r0,[r1,#0]
        0x00002654:    2009        .       MOVS     r0,#9
        0x00002656:    f8c1e008    ....    STR      lr,[r1,#8]
        0x0000265a:    6010        .`      STR      r0,[r2,#0]
        0x0000265c:    6888        .h      LDR      r0,[r1,#8]
        0x0000265e:    2800        .(      CMP      r0,#0
        0x00002660:    d0fc        ..      BEQ      0x265c ; stop_i2c + 88
        0x00002662:    f04f4080    O..@    MOV      r0,#0x40000000
        0x00002666:    2200        ."      MOVS     r2,#0
        0x00002668:    f04f0e01    O...    MOV      lr,#1
        0x0000266c:    f44f3380    O..3    MOV      r3,#0x10000
        0x00002670:    6002        .`      STR      r2,[r0,#0]
        0x00002672:    f8c1e008    ....    STR      lr,[r1,#8]
        0x00002676:    f8cc3014    ...0    STR      r3,[r12,#0x14]
        0x0000267a:    6002        .`      STR      r2,[r0,#0]
        0x0000267c:    684a        Jh      LDR      r2,[r1,#4]
        0x0000267e:    600a        .`      STR      r2,[r1,#0]
        0x00002680:    2209        ."      MOVS     r2,#9
        0x00002682:    f8c1e008    ....    STR      lr,[r1,#8]
        0x00002686:    6002        .`      STR      r2,[r0,#0]
        0x00002688:    6888        .h      LDR      r0,[r1,#8]
        0x0000268a:    2800        .(      CMP      r0,#0
        0x0000268c:    d0fc        ..      BEQ      0x2688 ; stop_i2c + 132
        0x0000268e:    f04f4080    O..@    MOV      r0,#0x40000000
        0x00002692:    2200        ."      MOVS     r2,#0
        0x00002694:    6002        .`      STR      r2,[r0,#0]
        0x00002696:    2001        .       MOVS     r0,#1
        0x00002698:    6088        .`      STR      r0,[r1,#8]
        0x0000269a:    f8dc0000    ....    LDR      r0,[r12,#0]
        0x0000269e:    f64f7137    O.7q    MOV      r1,#0xff37
        0x000026a2:    0400        ..      LSLS     r0,r0,#16
        0x000026a4:    d402        ..      BMI      0x26ac ; stop_i2c + 168
        0x000026a6:    1d08        ..      ADDS     r0,r1,#4
        0x000026a8:    b200        ..      SXTH     r0,r0
        0x000026aa:    bd80        ..      POP      {r7,pc}
        0x000026ac:    f8dc0000    ....    LDR      r0,[r12,#0]
        0x000026b0:    03c0        ..      LSLS     r0,r0,#15
        0x000026b2:    bf58        X.      IT       PL
        0x000026b4:    460a        .F      MOVPL    r2,r1
        0x000026b6:    b210        ..      SXTH     r0,r2
        0x000026b8:    bd80        ..      POP      {r7,pc}
    swi2c_init
        0x000026ba:    2004        .       MOVS     r0,#4
        0x000026bc:    f2c40001    ....    MOVT     r0,#0x4001
        0x000026c0:    f44f4100    O..A    MOV      r1,#0x8000
        0x000026c4:    6101        .a      STR      r1,[r0,#0x10]
        0x000026c6:    f44f3180    O..1    MOV      r1,#0x10000
        0x000026ca:    6101        .a      STR      r1,[r0,#0x10]
        0x000026cc:    6801        .h      LDR      r1,[r0,#0]
        0x000026ce:    f4214100    !..A    BIC      r1,r1,#0x8000
        0x000026d2:    6001        .`      STR      r1,[r0,#0]
        0x000026d4:    6801        .h      LDR      r1,[r0,#0]
        0x000026d6:    f4213180    !..1    BIC      r1,r1,#0x10000
        0x000026da:    6001        .`      STR      r1,[r0,#0]
        0x000026dc:    f04f4080    O..@    MOV      r0,#0x40000000
        0x000026e0:    2100        .!      MOVS     r1,#0
        0x000026e2:    6001        .`      STR      r1,[r0,#0]
        0x000026e4:    f2400004    @...    MOVW     r0,#4
        0x000026e8:    f2c20000    ....    MOVT     r0,#0x2000
        0x000026ec:    6800        .h      LDR      r0,[r0,#0]
        0x000026ee:    f6425163    B.cQ    MOV      r1,#0x2d63
        0x000026f2:    0980        ..      LSRS     r0,r0,#6
        0x000026f4:    f2c0513e    ..>Q    MOVT     r1,#0x53e
        0x000026f8:    fba00101    ....    UMULL    r0,r1,r0,r1
        0x000026fc:    0988        ..      LSRS     r0,r1,#6
        0x000026fe:    2104        .!      MOVS     r1,#4
        0x00002700:    f2c40100    ....    MOVT     r1,#0x4000
        0x00002704:    6048        H`      STR      r0,[r1,#4]
        0x00002706:    6848        Hh      LDR      r0,[r1,#4]
        0x00002708:    6008        .`      STR      r0,[r1,#0]
        0x0000270a:    2001        .       MOVS     r0,#1
        0x0000270c:    6088        .`      STR      r0,[r1,#8]
        0x0000270e:    4770        pG      BX       lr
    write_i2c
        0x00002710:    e92d4ff0    -..O    PUSH     {r4-r11,lr}
        0x00002714:    f64f7c79    O.y|    MOV      r12,#0xff79
        0x00002718:    f2400e00    @...    MOVW     lr,#0
        0x0000271c:    2104        .!      MOVS     r1,#4
        0x0000271e:    2307        .#      MOVS     r3,#7
        0x00002720:    2201        ."      MOVS     r2,#1
        0x00002722:    f44f3980    O..9    MOV      r9,#0x10000
        0x00002726:    f04f4580    O..E    MOV      r5,#0x40000000
        0x0000272a:    2600        .&      MOVS     r6,#0
        0x0000272c:    f04f0b09    O...    MOV      r11,#9
        0x00002730:    f2c40e01    ....    MOVT     lr,#0x4001
        0x00002734:    f44f4a00    O..J    MOV      r10,#0x8000
        0x00002738:    f2c40100    ....    MOVT     r1,#0x4000
        0x0000273c:    f10c0805    ....    ADD      r8,r12,#5
        0x00002740:    fa02f403    ....    LSL      r4,r2,r3
        0x00002744:    4004        .@      ANDS     r4,r4,r0
        0x00002746:    bf0c        ..      ITE      EQ
        0x00002748:    f8ce9010    ....    STREQ    r9,[lr,#0x10]
        0x0000274c:    f8ce9014    ....    STRNE    r9,[lr,#0x14]
        0x00002750:    602e        .`      STR      r6,[r5,#0]
        0x00002752:    684f        Oh      LDR      r7,[r1,#4]
        0x00002754:    600f        .`      STR      r7,[r1,#0]
        0x00002756:    608a        .`      STR      r2,[r1,#8]
        0x00002758:    f8c5b000    ....    STR      r11,[r5,#0]
        0x0000275c:    688f        .h      LDR      r7,[r1,#8]
        0x0000275e:    2f00        ./      CMP      r7,#0
        0x00002760:    d0fc        ..      BEQ      0x275c ; write_i2c + 76
        0x00002762:    602e        .`      STR      r6,[r5,#0]
        0x00002764:    608a        .`      STR      r2,[r1,#8]
        0x00002766:    f8cea014    ....    STR      r10,[lr,#0x14]
        0x0000276a:    602e        .`      STR      r6,[r5,#0]
        0x0000276c:    684f        Oh      LDR      r7,[r1,#4]
        0x0000276e:    600f        .`      STR      r7,[r1,#0]
        0x00002770:    608a        .`      STR      r2,[r1,#8]
        0x00002772:    f8c5b000    ....    STR      r11,[r5,#0]
        0x00002776:    bf00        ..      NOP      
        0x00002778:    688f        .h      LDR      r7,[r1,#8]
        0x0000277a:    2f00        ./      CMP      r7,#0
        0x0000277c:    d0fc        ..      BEQ      0x2778 ; write_i2c + 104
        0x0000277e:    602e        .`      STR      r6,[r5,#0]
        0x00002780:    608a        .`      STR      r2,[r1,#8]
        0x00002782:    f8de7000    ...p    LDR      r7,[lr,#0]
        0x00002786:    043f        ?.      LSLS     r7,r7,#16
        0x00002788:    d560        `.      BPL      0x284c ; write_i2c + 316
        0x0000278a:    f8de7000    ...p    LDR      r7,[lr,#0]
        0x0000278e:    fab4f484    ....    CLZ      r4,r4
        0x00002792:    0964        d.      LSRS     r4,r4,#5
        0x00002794:    f4073780    ...7    AND      r7,r7,#0x10000
        0x00002798:    ebb44f17    ...O    CMP      r4,r7,LSR #16
        0x0000279c:    d057        W.      BEQ      0x284e ; write_i2c + 318
        0x0000279e:    f8cea010    ....    STR      r10,[lr,#0x10]
        0x000027a2:    602e        .`      STR      r6,[r5,#0]
        0x000027a4:    684c        Lh      LDR      r4,[r1,#4]
        0x000027a6:    600c        .`      STR      r4,[r1,#0]
        0x000027a8:    608a        .`      STR      r2,[r1,#8]
        0x000027aa:    f8c5b000    ....    STR      r11,[r5,#0]
        0x000027ae:    bf00        ..      NOP      
        0x000027b0:    688c        .h      LDR      r4,[r1,#8]
        0x000027b2:    2c00        .,      CMP      r4,#0
        0x000027b4:    d0fc        ..      BEQ      0x27b0 ; write_i2c + 160
        0x000027b6:    2b00        .+      CMP      r3,#0
        0x000027b8:    f1a30301    ....    SUB      r3,r3,#1
        0x000027bc:    602e        .`      STR      r6,[r5,#0]
        0x000027be:    608a        .`      STR      r2,[r1,#8]
        0x000027c0:    d1be        ..      BNE      0x2740 ; write_i2c + 48
        0x000027c2:    f44f3080    O..0    MOV      r0,#0x10000
        0x000027c6:    f8ce0014    ....    STR      r0,[lr,#0x14]
        0x000027ca:    f04f4080    O..@    MOV      r0,#0x40000000
        0x000027ce:    2200        ."      MOVS     r2,#0
        0x000027d0:    6002        .`      STR      r2,[r0,#0]
        0x000027d2:    684a        Jh      LDR      r2,[r1,#4]
        0x000027d4:    600a        .`      STR      r2,[r1,#0]
        0x000027d6:    2201        ."      MOVS     r2,#1
        0x000027d8:    608a        .`      STR      r2,[r1,#8]
        0x000027da:    2209        ."      MOVS     r2,#9
        0x000027dc:    6002        .`      STR      r2,[r0,#0]
        0x000027de:    bf00        ..      NOP      
        0x000027e0:    6888        .h      LDR      r0,[r1,#8]
        0x000027e2:    2800        .(      CMP      r0,#0
        0x000027e4:    d0fc        ..      BEQ      0x27e0 ; write_i2c + 208
        0x000027e6:    f04f4080    O..@    MOV      r0,#0x40000000
        0x000027ea:    2200        ."      MOVS     r2,#0
        0x000027ec:    2301        .#      MOVS     r3,#1
        0x000027ee:    f44f4700    O..G    MOV      r7,#0x8000
        0x000027f2:    6002        .`      STR      r2,[r0,#0]
        0x000027f4:    608b        .`      STR      r3,[r1,#8]
        0x000027f6:    f8ce7014    ...p    STR      r7,[lr,#0x14]
        0x000027fa:    6002        .`      STR      r2,[r0,#0]
        0x000027fc:    684a        Jh      LDR      r2,[r1,#4]
        0x000027fe:    600a        .`      STR      r2,[r1,#0]
        0x00002800:    2209        ."      MOVS     r2,#9
        0x00002802:    608b        .`      STR      r3,[r1,#8]
        0x00002804:    6002        .`      STR      r2,[r0,#0]
        0x00002806:    bf00        ..      NOP      
        0x00002808:    6888        .h      LDR      r0,[r1,#8]
        0x0000280a:    2800        .(      CMP      r0,#0
        0x0000280c:    d0fc        ..      BEQ      0x2808 ; write_i2c + 248
        0x0000280e:    f04f4280    O..B    MOV      r2,#0x40000000
        0x00002812:    2000        .       MOVS     r0,#0
        0x00002814:    2301        .#      MOVS     r3,#1
        0x00002816:    6010        .`      STR      r0,[r2,#0]
        0x00002818:    608b        .`      STR      r3,[r1,#8]
        0x0000281a:    f44f4600    O..F    MOV      r6,#0x8000
        0x0000281e:    f8de7000    ...p    LDR      r7,[lr,#0]
        0x00002822:    f8ce6010    ...`    STR      r6,[lr,#0x10]
        0x00002826:    6010        .`      STR      r0,[r2,#0]
        0x00002828:    684e        Nh      LDR      r6,[r1,#4]
        0x0000282a:    0c38        8.      LSRS     r0,r7,#16
        0x0000282c:    600e        .`      STR      r6,[r1,#0]
        0x0000282e:    608b        .`      STR      r3,[r1,#8]
        0x00002830:    2309        .#      MOVS     r3,#9
        0x00002832:    6013        .`      STR      r3,[r2,#0]
        0x00002834:    688a        .h      LDR      r2,[r1,#8]
        0x00002836:    2a00        .*      CMP      r2,#0
        0x00002838:    d0fc        ..      BEQ      0x2834 ; write_i2c + 292
        0x0000283a:    f0000c01    ....    AND      r12,r0,#1
        0x0000283e:    f04f4080    O..@    MOV      r0,#0x40000000
        0x00002842:    2200        ."      MOVS     r2,#0
        0x00002844:    6002        .`      STR      r2,[r0,#0]
        0x00002846:    2001        .       MOVS     r0,#1
        0x00002848:    6088        .`      STR      r0,[r1,#8]
        0x0000284a:    e000        ..      B        0x284e ; write_i2c + 318
        0x0000284c:    46c4        .F      MOV      r12,r8
        0x0000284e:    fa0ff08c    ....    SXTH     r0,r12
        0x00002852:    e8bd8ff0    ....    POP      {r4-r11,pc}
    $t
    x$fpl$fpinit
    $v0
    _fp_init
        0x00002856:    eef10a10    ....    VMRS     r0,FPSCR
        0x0000285a:    f64f71ff    O..q    MOV      r1,#0xffff
        0x0000285e:    f2c031c0    ...1    MOVT     r1,#0x3c0
        0x00002862:    ea200001     ...    BIC      r0,r0,r1
        0x00002866:    f0407040    @.@p    ORR      r0,r0,#0x3000000
        0x0000286a:    eee10a10    ....    VMSR     FPSCR,r0
    __fplib_config_fpu_vfp
    __fplib_config_pureend_doubles
        0x0000286e:    4770        pG      BX       lr
    $d.realdata
    .constdata
    uc_hextab
        0x00002870:    33323130    0123    DCD    858927408
        0x00002874:    37363534    4567    DCD    926299444
        0x00002878:    42413938    89AB    DCD    1111570744
        0x0000287c:    46454443    CDEF    DCD    1178944579
        0x00002880:    00583040    @0X.    DCD    5779520
    lc_hextab
        0x00002884:    33323130    0123    DCD    858927408
        0x00002888:    37363534    4567    DCD    926299444
        0x0000288c:    62613938    89ab    DCD    1650538808
        0x00002890:    66656463    cdef    DCD    1717920867
        0x00002894:    00783040    @0x.    DCD    7876672
    SCD_PROTOCOL_FCNS
        0x00002898:    00001e0d    ....    DCD    7693
        0x0000289c:    00001ccd    ....    DCD    7373
        0x000028a0:    00001a7d    }...    DCD    6781
        0x000028a4:    00001a8d    ....    DCD    6797
        0x000028a8:    00001c59    Y...    DCD    7257
    cz_ctype
        0x000028ac:    00000020     ...    DCD    32
        0x000028b0:    00010120     ...    DCD    65824
        0x000028b4:    00020220     ...    DCD    131616
        0x000028b8:    00030320     ...    DCD    197408
        0x000028bc:    00040420     ...    DCD    263200
        0x000028c0:    00050520     ...    DCD    328992
        0x000028c4:    00060620     ...    DCD    394784
        0x000028c8:    00070720     ...    DCD    460576
        0x000028cc:    00080820     ...    DCD    526368
        0x000028d0:    00090968    h...    DCD    592232
        0x000028d4:    000a0a28    (...    DCD    657960
        0x000028d8:    000b0b28    (...    DCD    723752
        0x000028dc:    000c0c28    (...    DCD    789544
        0x000028e0:    000d0d28    (...    DCD    855336
        0x000028e4:    000e0e20     ...    DCD    921120
        0x000028e8:    000f0f20     ...    DCD    986912
        0x000028ec:    00101020     ...    DCD    1052704
        0x000028f0:    00111120     ...    DCD    1118496
        0x000028f4:    00121220     ...    DCD    1184288
        0x000028f8:    00131320     ...    DCD    1250080
        0x000028fc:    00141420     ...    DCD    1315872
        0x00002900:    00151520     ...    DCD    1381664
        0x00002904:    00161620     ...    DCD    1447456
        0x00002908:    00171720     ...    DCD    1513248
        0x0000290c:    00181820     ...    DCD    1579040
        0x00002910:    00191920     ...    DCD    1644832
        0x00002914:    001a1a20     ...    DCD    1710624
        0x00002918:    001b1b20     ...    DCD    1776416
        0x0000291c:    001c1c20     ...    DCD    1842208
        0x00002920:    001d1d20     ...    DCD    1908000
        0x00002924:    001e1e20     ...    DCD    1973792
        0x00002928:    001f1f20     ...    DCD    2039584
        0x0000292c:    00202048    H  .    DCD    2105416
        0x00002930:    00212110    .!!.    DCD    2171152
        0x00002934:    00222210    ."".    DCD    2236944
        0x00002938:    00232310    .##.    DCD    2302736
        0x0000293c:    00242410    .$$.    DCD    2368528
        0x00002940:    00252510    .%%.    DCD    2434320
        0x00002944:    00262610    .&&.    DCD    2500112
        0x00002948:    00272710    .''.    DCD    2565904
        0x0000294c:    00282810    .((.    DCD    2631696
        0x00002950:    00292910    .)).    DCD    2697488
        0x00002954:    002a2a10    .**.    DCD    2763280
        0x00002958:    002b2b10    .++.    DCD    2829072
        0x0000295c:    002c2c10    .,,.    DCD    2894864
        0x00002960:    002d2d10    .--.    DCD    2960656
        0x00002964:    002e2e10    ....    DCD    3026448
        0x00002968:    002f2f10    .//.    DCD    3092240
        0x0000296c:    00303004    .00.    DCD    3158020
        0x00002970:    00313104    .11.    DCD    3223812
        0x00002974:    00323204    .22.    DCD    3289604
        0x00002978:    00333304    .33.    DCD    3355396
        0x0000297c:    00343404    .44.    DCD    3421188
        0x00002980:    00353504    .55.    DCD    3486980
        0x00002984:    00363604    .66.    DCD    3552772
        0x00002988:    00373704    .77.    DCD    3618564
        0x0000298c:    00383804    .88.    DCD    3684356
        0x00002990:    00393904    .99.    DCD    3750148
        0x00002994:    003a3a10    .::.    DCD    3815952
        0x00002998:    003b3b10    .;;.    DCD    3881744
        0x0000299c:    003c3c10    .<<.    DCD    3947536
        0x000029a0:    003d3d10    .==.    DCD    4013328
        0x000029a4:    003e3e10    .>>.    DCD    4079120
        0x000029a8:    003f3f10    .??.    DCD    4144912
        0x000029ac:    00404010    .@@.    DCD    4210704
        0x000029b0:    00614181    .Aa.    DCD    6373761
        0x000029b4:    00624281    .Bb.    DCD    6439553
        0x000029b8:    00634381    .Cc.    DCD    6505345
        0x000029bc:    00644481    .Dd.    DCD    6571137
        0x000029c0:    00654581    .Ee.    DCD    6636929
        0x000029c4:    00664681    .Ff.    DCD    6702721
        0x000029c8:    00674701    .Gg.    DCD    6768385
        0x000029cc:    00684801    .Hh.    DCD    6834177
        0x000029d0:    00694901    .Ii.    DCD    6899969
        0x000029d4:    006a4a01    .Jj.    DCD    6965761
        0x000029d8:    006b4b01    .Kk.    DCD    7031553
        0x000029dc:    006c4c01    .Ll.    DCD    7097345
        0x000029e0:    006d4d01    .Mm.    DCD    7163137
        0x000029e4:    006e4e01    .Nn.    DCD    7228929
        0x000029e8:    006f4f01    .Oo.    DCD    7294721
        0x000029ec:    00705001    .Pp.    DCD    7360513
        0x000029f0:    00715101    .Qq.    DCD    7426305
        0x000029f4:    00725201    .Rr.    DCD    7492097
        0x000029f8:    00735301    .Ss.    DCD    7557889
        0x000029fc:    00745401    .Tt.    DCD    7623681
        0x00002a00:    00755501    .Uu.    DCD    7689473
        0x00002a04:    00765601    .Vv.    DCD    7755265
        0x00002a08:    00775701    .Ww.    DCD    7821057
        0x00002a0c:    00785801    .Xx.    DCD    7886849
        0x00002a10:    00795901    .Yy.    DCD    7952641
        0x00002a14:    007a5a01    .Zz.    DCD    8018433
        0x00002a18:    005b5b10    .[[.    DCD    5987088
        0x00002a1c:    005c5c10    .\\.    DCD    6052880
        0x00002a20:    005d5d10    .]].    DCD    6118672
        0x00002a24:    005e5e10    .^^.    DCD    6184464
        0x00002a28:    005f5f10    .__.    DCD    6250256
        0x00002a2c:    00606010    .``.    DCD    6316048
        0x00002a30:    00614182    .Aa.    DCD    6373762
        0x00002a34:    00624282    .Bb.    DCD    6439554
        0x00002a38:    00634382    .Cc.    DCD    6505346
        0x00002a3c:    00644482    .Dd.    DCD    6571138
        0x00002a40:    00654582    .Ee.    DCD    6636930
        0x00002a44:    00664682    .Ff.    DCD    6702722
        0x00002a48:    00674702    .Gg.    DCD    6768386
        0x00002a4c:    00684802    .Hh.    DCD    6834178
        0x00002a50:    00694902    .Ii.    DCD    6899970
        0x00002a54:    006a4a02    .Jj.    DCD    6965762
        0x00002a58:    006b4b02    .Kk.    DCD    7031554
        0x00002a5c:    006c4c02    .Ll.    DCD    7097346
        0x00002a60:    006d4d02    .Mm.    DCD    7163138
        0x00002a64:    006e4e02    .Nn.    DCD    7228930
        0x00002a68:    006f4f02    .Oo.    DCD    7294722
        0x00002a6c:    00705002    .Pp.    DCD    7360514
        0x00002a70:    00715102    .Qq.    DCD    7426306
        0x00002a74:    00725202    .Rr.    DCD    7492098
        0x00002a78:    00735302    .Ss.    DCD    7557890
        0x00002a7c:    00745402    .Tt.    DCD    7623682
        0x00002a80:    00755502    .Uu.    DCD    7689474
        0x00002a84:    00765602    .Vv.    DCD    7755266
        0x00002a88:    00775702    .Ww.    DCD    7821058
        0x00002a8c:    00785802    .Xx.    DCD    7886850
        0x00002a90:    00795902    .Yy.    DCD    7952642
        0x00002a94:    007a5a02    .Zz.    DCD    8018434
        0x00002a98:    007b7b10    .{{.    DCD    8092432
        0x00002a9c:    007c7c10    .||.    DCD    8158224
        0x00002aa0:    007d7d10    .}}.    DCD    8224016
        0x00002aa4:    007e7e10    .~~.    DCD    8289808
        0x00002aa8:    007f7f20     ...    DCD    8355616
        0x00002aac:    00808000    ....    DCD    8421376
        0x00002ab0:    00818100    ....    DCD    8487168
        0x00002ab4:    00828200    ....    DCD    8552960
        0x00002ab8:    00838300    ....    DCD    8618752
        0x00002abc:    00848400    ....    DCD    8684544
        0x00002ac0:    00858500    ....    DCD    8750336
        0x00002ac4:    00868600    ....    DCD    8816128
        0x00002ac8:    00878700    ....    DCD    8881920
        0x00002acc:    00888800    ....    DCD    8947712
        0x00002ad0:    00898900    ....    DCD    9013504
        0x00002ad4:    008a8a00    ....    DCD    9079296
        0x00002ad8:    008b8b00    ....    DCD    9145088
        0x00002adc:    008c8c00    ....    DCD    9210880
        0x00002ae0:    008d8d00    ....    DCD    9276672
        0x00002ae4:    008e8e00    ....    DCD    9342464
        0x00002ae8:    008f8f00    ....    DCD    9408256
        0x00002aec:    00909000    ....    DCD    9474048
        0x00002af0:    00919100    ....    DCD    9539840
        0x00002af4:    00929200    ....    DCD    9605632
        0x00002af8:    00939300    ....    DCD    9671424
        0x00002afc:    00949400    ....    DCD    9737216
        0x00002b00:    00959500    ....    DCD    9803008
        0x00002b04:    00969600    ....    DCD    9868800
        0x00002b08:    00979700    ....    DCD    9934592
        0x00002b0c:    00989800    ....    DCD    10000384
        0x00002b10:    00999900    ....    DCD    10066176
        0x00002b14:    009a9a00    ....    DCD    10131968
        0x00002b18:    009b9b00    ....    DCD    10197760
        0x00002b1c:    009c9c00    ....    DCD    10263552
        0x00002b20:    009d9d00    ....    DCD    10329344
        0x00002b24:    009e9e00    ....    DCD    10395136
        0x00002b28:    009f9f00    ....    DCD    10460928
        0x00002b2c:    00a0a000    ....    DCD    10526720
        0x00002b30:    00a1a100    ....    DCD    10592512
        0x00002b34:    00a2a200    ....    DCD    10658304
        0x00002b38:    00a3a300    ....    DCD    10724096
        0x00002b3c:    00a4a400    ....    DCD    10789888
        0x00002b40:    00a5a500    ....    DCD    10855680
        0x00002b44:    00a6a600    ....    DCD    10921472
        0x00002b48:    00a7a700    ....    DCD    10987264
        0x00002b4c:    00a8a800    ....    DCD    11053056
        0x00002b50:    00a9a900    ....    DCD    11118848
        0x00002b54:    00aaaa00    ....    DCD    11184640
        0x00002b58:    00abab00    ....    DCD    11250432
        0x00002b5c:    00acac00    ....    DCD    11316224
        0x00002b60:    00adad00    ....    DCD    11382016
        0x00002b64:    00aeae00    ....    DCD    11447808
        0x00002b68:    00afaf00    ....    DCD    11513600
        0x00002b6c:    00b0b000    ....    DCD    11579392
        0x00002b70:    00b1b100    ....    DCD    11645184
        0x00002b74:    00b2b200    ....    DCD    11710976
        0x00002b78:    00b3b300    ....    DCD    11776768
        0x00002b7c:    00b4b400    ....    DCD    11842560
        0x00002b80:    00b5b500    ....    DCD    11908352
        0x00002b84:    00b6b600    ....    DCD    11974144
        0x00002b88:    00b7b700    ....    DCD    12039936
        0x00002b8c:    00b8b800    ....    DCD    12105728
        0x00002b90:    00b9b900    ....    DCD    12171520
        0x00002b94:    00baba00    ....    DCD    12237312
        0x00002b98:    00bbbb00    ....    DCD    12303104
        0x00002b9c:    00bcbc00    ....    DCD    12368896
        0x00002ba0:    00bdbd00    ....    DCD    12434688
        0x00002ba4:    00bebe00    ....    DCD    12500480
        0x00002ba8:    00bfbf00    ....    DCD    12566272
        0x00002bac:    00c0c000    ....    DCD    12632064
        0x00002bb0:    00c1c100    ....    DCD    12697856
        0x00002bb4:    00c2c200    ....    DCD    12763648
        0x00002bb8:    00c3c300    ....    DCD    12829440
        0x00002bbc:    00c4c400    ....    DCD    12895232
        0x00002bc0:    00c5c500    ....    DCD    12961024
        0x00002bc4:    00c6c600    ....    DCD    13026816
        0x00002bc8:    00c7c700    ....    DCD    13092608
        0x00002bcc:    00c8c800    ....    DCD    13158400
        0x00002bd0:    00c9c900    ....    DCD    13224192
        0x00002bd4:    00caca00    ....    DCD    13289984
        0x00002bd8:    00cbcb00    ....    DCD    13355776
        0x00002bdc:    00cccc00    ....    DCD    13421568
        0x00002be0:    00cdcd00    ....    DCD    13487360
        0x00002be4:    00cece00    ....    DCD    13553152
        0x00002be8:    00cfcf00    ....    DCD    13618944
        0x00002bec:    00d0d000    ....    DCD    13684736
        0x00002bf0:    00d1d100    ....    DCD    13750528
        0x00002bf4:    00d2d200    ....    DCD    13816320
        0x00002bf8:    00d3d300    ....    DCD    13882112
        0x00002bfc:    00d4d400    ....    DCD    13947904
        0x00002c00:    00d5d500    ....    DCD    14013696
        0x00002c04:    00d6d600    ....    DCD    14079488
        0x00002c08:    00d7d700    ....    DCD    14145280
        0x00002c0c:    00d8d800    ....    DCD    14211072
        0x00002c10:    00d9d900    ....    DCD    14276864
        0x00002c14:    00dada00    ....    DCD    14342656
        0x00002c18:    00dbdb00    ....    DCD    14408448
        0x00002c1c:    00dcdc00    ....    DCD    14474240
        0x00002c20:    00dddd00    ....    DCD    14540032
        0x00002c24:    00dede00    ....    DCD    14605824
        0x00002c28:    00dfdf00    ....    DCD    14671616
        0x00002c2c:    00e0e000    ....    DCD    14737408
        0x00002c30:    00e1e100    ....    DCD    14803200
        0x00002c34:    00e2e200    ....    DCD    14868992
        0x00002c38:    00e3e300    ....    DCD    14934784
        0x00002c3c:    00e4e400    ....    DCD    15000576
        0x00002c40:    00e5e500    ....    DCD    15066368
        0x00002c44:    00e6e600    ....    DCD    15132160
        0x00002c48:    00e7e700    ....    DCD    15197952
        0x00002c4c:    00e8e800    ....    DCD    15263744
        0x00002c50:    00e9e900    ....    DCD    15329536
        0x00002c54:    00eaea00    ....    DCD    15395328
        0x00002c58:    00ebeb00    ....    DCD    15461120
        0x00002c5c:    00ecec00    ....    DCD    15526912
        0x00002c60:    00eded00    ....    DCD    15592704
        0x00002c64:    00eeee00    ....    DCD    15658496
        0x00002c68:    00efef00    ....    DCD    15724288
        0x00002c6c:    00f0f000    ....    DCD    15790080
        0x00002c70:    00f1f100    ....    DCD    15855872
        0x00002c74:    00f2f200    ....    DCD    15921664
        0x00002c78:    00f3f300    ....    DCD    15987456
        0x00002c7c:    00f4f400    ....    DCD    16053248
        0x00002c80:    00f5f500    ....    DCD    16119040
        0x00002c84:    00f6f600    ....    DCD    16184832
        0x00002c88:    00f7f700    ....    DCD    16250624
        0x00002c8c:    00f8f800    ....    DCD    16316416
        0x00002c90:    00f9f900    ....    DCD    16382208
        0x00002c94:    00fafa00    ....    DCD    16448000
        0x00002c98:    00fbfb00    ....    DCD    16513792
        0x00002c9c:    00fcfc00    ....    DCD    16579584
        0x00002ca0:    00fdfd00    ....    DCD    16645376
        0x00002ca4:    00fefe00    ....    DCD    16711168
        0x00002ca8:    00ffff00    ....    DCD    16776960
        0x00002cac:    666e6f63    conf    DCD    1718513507
        0x00002cb0:    67686300    .chg    DCD    1734894336
        0x00002cb4:    6c616300    .cal    DCD    1818321664
        0x00002cb8:    7564006c    l.du    DCD    1969487980
        0x00002cbc:    7300706d    mp.s    DCD    1929408621
        0x00002cc0:    7465        et      DCW    29797
        0x00002cc2:    00          .       DCB    0
    .L.str.3
        0x00002cc3:    65          e       DCB    101
        0x00002cc4:    6c407272    rr@l    DCD    1816162930
        0x00002cc8:    0a0d6425    %d..    DCD    168649765
        0x00002ccc:    00000000    ....    DCD    0
    tyj_unit_struct_1
        0x00002cd0:    20000070    p..     DCD    536871024
        0x00002cd4:    00000004    ....    DCD    4
        0x00002cd8:    20000154    T..     DCD    536871252
        0x00002cdc:    00000002    ....    DCD    2
        0x00002ce0:    20000158    X..     DCD    536871256
        0x00002ce4:    00000002    ....    DCD    2
        0x00002ce8:    2000015c    \..     DCD    536871260
        0x00002cec:    00000002    ....    DCD    2
        0x00002cf0:    20000160    `..     DCD    536871264
        0x00002cf4:    00000002    ....    DCD    2
        0x00002cf8:    20000156    V..     DCD    536871254
        0x00002cfc:    00000002    ....    DCD    2
        0x00002d00:    2000015a    Z..     DCD    536871258
        0x00002d04:    00000002    ....    DCD    2
        0x00002d08:    2000015e    ^..     DCD    536871262
        0x00002d0c:    00000002    ....    DCD    2
        0x00002d10:    20000162    b..     DCD    536871266
        0x00002d14:    00000002    ....    DCD    2
    Region$$Table$$Base
        0x00002d18:    00002d38    8-..    DCD    11576
        0x00002d1c:    20000000    ...     DCD    536870912
        0x00002d20:    00000018    ....    DCD    24
        0x00002d24:    000008d8    ....    DCD    2264
        0x00002d28:    00002d50    P-..    DCD    11600
        0x00002d2c:    20000018    ...     DCD    536870936
        0x00002d30:    00001178    x...    DCD    4472
        0x00002d34:    000008f4    ....    DCD    2292
    Region$$Table$$Limit

** Section #2 'RW_IRAM1' (SHT_PROGBITS) [SHF_ALLOC + SHF_WRITE]
    Size   : 24 bytes (alignment 8)
    Address: 0x20000000

    0x20000000:   00 00 00 ff 00 e1 f5 05 00 00 81 7f 00 00 00 00    ................
    0x20000010:   00 00 82 7f 00 00 83 7f                            ........


** Section #3 'RW_IRAM1' (SHT_NOBITS) [SHF_ALLOC + SHF_WRITE]
    Size   : 4472 bytes (alignment 8)
    Address: 0x20000018


** Section #4 '.debug_abbrev' (SHT_PROGBITS)
    Size   : 4221 bytes


** Section #5 '.debug_frame' (SHT_PROGBITS)
    Size   : 3996 bytes


** Section #6 '.debug_info' (SHT_PROGBITS)
    Size   : 24790 bytes


** Section #7 '.debug_line' (SHT_PROGBITS)
    Size   : 10065 bytes


** Section #8 '.debug_loc' (SHT_PROGBITS)
    Size   : 10722 bytes


** Section #9 '.debug_str' (SHT_PROGBITS)
    Size   : 9491 bytes


** Section #10 '.debug_ranges' (SHT_PROGBITS)
    Size   : 1584 bytes


** Section #11 '.symtab' (SHT_SYMTAB)
    Size   : 7520 bytes (alignment 4)
    String table #12 '.strtab'
    Last local symbol no. 243

    Symbol table .symtab (469 symbols, 243 local)

      #  Symbol Name                Value      Bind  Sec  Type  Vis  Size
    ========================================================================

      1  $d.realdata                0x00000000   Lc    1   --   De 
      2  $t                         0x0000089c   Lc    1   --   De 
      3  $d                         0x000008d0   Lc    1   --   De 
      4  $t                         0x000008d8   Lc    1   --   De 
      5  $d                         0x00000944   Lc    1   --   De 
      6  $t                         0x00000948   Lc    1   --   De 
      7  $d                         0x00000a18   Lc    1   --   De 
      8  $t                         0x00000a24   Lc    1   --   De 
      9  $d                         0x00000a38   Lc    1   --   De 
     10  $t                         0x00000a3c   Lc    1   --   De 
     11  $d                         0x00000b60   Lc    1   --   De 
     12  $t                         0x00000b70   Lc    1   --   De 
     13  $d                         0x00000bc4   Lc    1   --   De 
     14  $t                         0x00000bc8   Lc    1   --   De 
     15  $d                         0x00000bf0   Lc    1   --   De 
     16  $t                         0x00000bf4   Lc    1   --   De 
     17  $d                         0x00000cf8   Lc    1   --   De 
     18  $t                         0x00000cfc   Lc    1   --   De 
     19  $d                         0x00000d26   Lc    1   --   De 
     20  $t                         0x00000d2c   Lc    1   --   De 
     21  $d                         0x00000d50   Lc    1   --   De 
     22  $t.0                       0x00000d54   Lc    1   --   De 
     23  $d.5                       0x00000ec0   Lc    1   --   De 
     24  $t.2                       0x00000ef0   Lc    1   --   De 
     25  $d.3                       0x00000f74   Lc    1   --   De 
     26  $t.1                       0x00000fc4   Lc    1   --   De 
     27  $d.5                       0x000016a4   Lc    1   --   De 
     28  $t.0                       0x000016b4   Lc    1   --   De 
     29  $d.5                       0x000018c4   Lc    1   --   De 
     30  $t.0                       0x000018cc   Lc    1   --   De 
     31  $d.1                       0x00001a54   Lc    1   --   De 
     32  $t.14                      0x00001a7c   Lc    1   --   De 
     33  $d.12                      0x00001f18   Lc    1   --   De 
     34  $t.0                       0x00001f20   Lc    1   --   De 
     35  $t                         0x00002856   Lc    1   --   De 
     36  $d.realdata                0x00002870   Lc    1   --   De 
     37  $d.realdata                0x20000000   Lc    2   --   De 
     38  STAR_adc.c                 0x00000000   Lc  Abs  File  De 
     39  STAR_dma.c                 0x00000000   Lc  Abs  File  De 
     40  STAR_dualtimer.c           0x00000000   Lc  Abs  File  De 
     41  STAR_gpio.c                0x00000000   Lc  Abs  File  De 
     42  STAR_i2c.c                 0x00000000   Lc  Abs  File  De 
     43  STAR_mpu.c                 0x00000000   Lc  Abs  File  De 
     44  STAR_rcc.c                 0x00000000   Lc  Abs  File  De 
     45  STAR_retarget.c            0x00000000   Lc  Abs  File  De 
     46  STAR_spi.c                 0x00000000   Lc  Abs  File  De 
     47  STAR_timer.c               0x00000000   Lc  Abs  File  De 
     48  STAR_uart.c                0x00000000   Lc  Abs  File  De 
     49  STAR_watchdog.c            0x00000000   Lc  Abs  File  De 
     50  system_ARMCM33.c           0x00000000   Lc  Abs  File  De 
     51  SA5Z50_DEVS/startup_ARMCM33.s
                                    0x00000000   Lc  Abs  File  De 
     52  STACK                      0x20000190   Lc    3  Sect  De   0x1000
     53  RESET                      0x00000000   Lc    1  Sect  De   0x89c
     54  .text                      0x00000954   Lc    1  Sect  De   0xd0
     55  $v0                        0x00000954   Lc    1   --   De 
     56  delay.c                    0x00000000   Lc  Abs  File  De 
     57  scd.c                      0x00000000   Lc  Abs  File  De 
     58  SCD_CMD_TAB                0x00001a54   Lc    1   --   De 
     59  SCD_CMD_FCNS               0x00001a68   Lc    1   --   De 
     60  SCD_CMD_SET                0x0000174d   Lc    1  Code  De   0x180
     61  SCD_CMD_CONF               0x0000170b   Lc    1  Code  De   0x1a
     62  SCD_CMD_CHG                0x000016f5   Lc    1  Code  De   0x16
     63  SCD_CMD_DUMP               0x00001725   Lc    1  Code  De   0x26
     64  SCD_CMD_CALL               0x000016cd   Lc    1  Code  De   0x28
     65  _cz_strtoxl                0x00001fbd   Lc    1  Code  De   0xfa
     66  SCO_get                    0x00001e0d   Lc    1  Code  De   0x10c
     67  SCO_VAR                    0x00001ccd   Lc    1  Code  De   0x140
     68  SCO_DEBUG                  0x00001a7d   Lc    1  Code  De   0xe
     69  SCO_DUMP                   0x00001a8d   Lc    1  Code  De   0x1cc
     70  SCO_PRINT                  0x00001c59   Lc    1  Code  De   0x74
     71  SCD_PROTOCOL_FCNS          0x00002898   Lc    1  Data  De   0x14
     72  SCO_VAR.checkUint16Sum     0x2000001a   Lc    3  Data  De   0x2
     73  SCO_DUMP.checkUint16Sum    0x20000018   Lc    3  Data  De   0x2
     74  lcd_9488_drv.c             0x00000000   Lc  Abs  File  De 
     75  touch_GT911_drv.c          0x00000000   Lc  Abs  File  De 
     76  .L.str.3                   0x00002cc3   Lc    1  Data  De   0xa
     77  i2c_gpio.c                 0x00000000   Lc  Abs  File  De 
     78  main.c                     0x00000000   Lc  Abs  File  De 
     79  touchInfo1                 0x20000164   Lc    3  Data  De   0x2a
     80  NVIC_it.c                  0x00000000   Lc  Abs  File  De 
     81  scd_reg.c                  0x00000000   Lc  Abs  File  De 
     82  dc.s                       0x00000000   Lc  Abs  File  De 
     83  ../clib/printf.c           0x00000000   Lc  Abs  File  De 
     84  ../clib/printf.c           0x00000000   Lc  Abs  File  De 
     85  .text                      0x00000a24   Lc    1  Sect  De 
     86  ../clib/printf.c           0x00000000   Lc  Abs  File  De 
     87  .text                      0x00000a3c   Lc    1  Sect  De 
     88  ../clib/printf.c           0x00000000   Lc  Abs  File  De 
     89  .text                      0x00000aa4   Lc    1  Sect  De 
     90  ../clib/printf.c           0x00000000   Lc  Abs  File  De 
     91  .text                      0x00000af8   Lc    1  Sect  De 
     92  ../clib/printf.c           0x00000000   Lc  Abs  File  De 
     93  ../clib/printf.c           0x00000000   Lc  Abs  File  De 
     94  .text                      0x00000b70   Lc    1  Sect  De 
     95  .constdata                 0x00002870   Lc    1  Sect  De   0x28
     96  uc_hextab                  0x00002870   Lc    1  Data  De   0x14
     97  lc_hextab                  0x00002884   Lc    1  Data  De   0x14
     98  ../clib/printf.c           0x00000000   Lc  Abs  File  De 
     99  ../clib/printf.c           0x00000000   Lc  Abs  File  De 
    100  ../clib/printf.c           0x00000000   Lc  Abs  File  De 
    101  ../clib/printf.c           0x00000000   Lc  Abs  File  De 
    102  ../clib/printf.c           0x00000000   Lc  Abs  File  De 
    103  ../clib/printf.c           0x00000000   Lc  Abs  File  De 
    104  ../clib/printf.c           0x00000000   Lc  Abs  File  De 
    105  ../clib/printf.c           0x00000000   Lc  Abs  File  De 
    106  ../clib/printf.c           0x00000000   Lc  Abs  File  De 
    107  ../clib/printf.c           0x00000000   Lc  Abs  File  De 
    108  ../clib/printf.c           0x00000000   Lc  Abs  File  De 
    109  ../clib/printf.c           0x00000000   Lc  Abs  File  De 
    110  ../clib/printf_percent.s   0x00000000   Lc  Abs  File  De 
    111  .ARM.Collect$$_printf_percent$$00000014
                                    0x0000091c   Lc    1  Sect  De   0x6
    112  ../clib/printf_percent.s   0x00000000   Lc  Abs  File  De 
    113  .ARM.Collect$$_printf_percent$$0000000C
                                    0x00000916   Lc    1  Sect  De   0x6
    114  ../clib/printf_percent.s   0x00000000   Lc  Abs  File  De 
    115  .ARM.Collect$$_printf_percent$$00000009
                                    0x00000910   Lc    1  Sect  De   0x6
    116  ../clib/printf_percent.s   0x00000000   Lc  Abs  File  De 
    117  .ARM.Collect$$_printf_percent$$00000000
                                    0x00000910   Lc    1  Sect  De 
    118  ../clib/stdio.c            0x00000000   Lc  Abs  File  De 
    119  .text                      0x00000bc8   Lc    1  Sect  De 
    120  ../clib/heapaux.c          0x00000000   Lc  Abs  File  De 
    121  .text                      0x00000bf4   Lc    1  Sect  De 
    122  ../clib/angel/startup.s    0x00000000   Lc  Abs  File  De 
    123  !!!main                    0x0000089c   Lc    1  Sect  De   0x8
    124  ../clib/angel/kernel.s     0x00000000   Lc  Abs  File  De 
    125  .ARM.Collect$$rtentry$$00000000
                                    0x00000932   Lc    1  Sect  De 
    126  ../clib/printf.c           0x00000000   Lc  Abs  File  De 
    127  .text                      0x00000bfa   Lc    1  Sect  De 
    128  ../clib/printf.c           0x00000000   Lc  Abs  File  De 
    129  .text                      0x00000cac   Lc    1  Sect  De 
    130  ../clib/printf.c           0x00000000   Lc  Abs  File  De 
    131  .text                      0x00000cd8   Lc    1  Sect  De 
    132  ../clib/printf_percent.s   0x00000000   Lc  Abs  File  De 
    133  .ARM.Collect$$_printf_percent$$00000017
                                    0x00000922   Lc    1  Sect  De   0x4
    134  ../clib/angel/kernel.s     0x00000000   Lc  Abs  File  De 
    135  .ARM.Collect$$rtentry$$00000002
                                    0x00000932   Lc    1  Sect  De 
    136  .ARM.Collect$$rtentry$$00000009
                                    0x00000936   Lc    1  Sect  De 
    137  .ARM.Collect$$rtentry$$0000000A
                                    0x00000936   Lc    1  Sect  De   0x4
    138  .ARM.Collect$$rtentry$$0000000C
                                    0x0000093a   Lc    1  Sect  De 
    139  .ARM.Collect$$rtentry$$0000000D
                                    0x0000093a   Lc    1  Sect  De   0x8
    140  ../clib/angel/kernel.s     0x00000000   Lc  Abs  File  De 
    141  ../clib/angel/kernel.s     0x00000000   Lc  Abs  File  De 
    142  .ARM.Collect$$rtentry$$00000005
                                    0x00000932   Lc    1  Sect  De   0x4
    143  .ARM.Collect$$rtentry$$00002716
                                    0x00000944   Lc    1  Sect  De   0x4
    144  __lit__00000000            0x00000944   Lc    1  Data  De   0x4
    145  ../clib/printf.c           0x00000000   Lc  Abs  File  De 
    146  .text                      0x00000cfc   Lc    1  Sect  De 
    147  _printf_input_char         0x00000cfd   Lc    1  Code  De   0xa
    148  ../clib/stdio.c            0x00000000   Lc  Abs  File  De 
    149  .text                      0x00000d2c   Lc    1  Sect  De 
    150  ../clib/stdio.c            0x00000000   Lc  Abs  File  De 
    151  ../clib/angel/sys.s        0x00000000   Lc  Abs  File  De 
    152  ../clib/printf.c           0x00000000   Lc  Abs  File  De 
    153  ../clib/stdlib.c           0x00000000   Lc  Abs  File  De 
    154  .text                      0x00000d34   Lc    1  Sect  De 
    155  ../clib/angel/boardlib.s   0x00000000   Lc  Abs  File  De 
    156  ../clib/angel/boardlib.s   0x00000000   Lc  Abs  File  De 
    157  ../clib/angel/boardlib.s   0x00000000   Lc  Abs  File  De 
    158  ../clib/libinit.s          0x00000000   Lc  Abs  File  De 
    159  .ARM.Collect$$libinit$$00000000
                                    0x00000926   Lc    1  Sect  De   0x2
    160  ../clib/angel/sys.s        0x00000000   Lc  Abs  File  De 
    161  ../clib/angel/sys.s        0x00000000   Lc  Abs  File  De 
    162  ../clib/angel/sys.s        0x00000000   Lc  Abs  File  De 
    163  ../clib/angel/kernel.s     0x00000000   Lc  Abs  File  De 
    164  .ARM.Collect$$rtexit$$00000000
                                    0x00000948   Lc    1  Sect  De   0x2
    165  ../clib/libinit.s          0x00000000   Lc  Abs  File  De 
    166  .ARM.Collect$$libinit$$00000001
                                    0x00000928   Lc    1  Sect  De   0x4
    167  .ARM.Collect$$libinit$$00000004
                                    0x0000092c   Lc    1  Sect  De 
    168  .ARM.Collect$$libinit$$0000000A
                                    0x0000092c   Lc    1  Sect  De 
    169  .ARM.Collect$$libinit$$0000000C
                                    0x0000092c   Lc    1  Sect  De 
    170  .ARM.Collect$$libinit$$0000000E
                                    0x0000092c   Lc    1  Sect  De 
    171  .ARM.Collect$$libinit$$00000011
                                    0x0000092c   Lc    1  Sect  De 
    172  .ARM.Collect$$libinit$$00000013
                                    0x0000092c   Lc    1  Sect  De 
    173  .ARM.Collect$$libinit$$00000015
                                    0x0000092c   Lc    1  Sect  De 
    174  .ARM.Collect$$libinit$$00000017
                                    0x0000092c   Lc    1  Sect  De 
    175  .ARM.Collect$$libinit$$00000019
                                    0x0000092c   Lc    1  Sect  De 
    176  .ARM.Collect$$libinit$$0000001B
                                    0x0000092c   Lc    1  Sect  De 
    177  .ARM.Collect$$libinit$$0000001D
                                    0x0000092c   Lc    1  Sect  De 
    178  .ARM.Collect$$libinit$$0000001F
                                    0x0000092c   Lc    1  Sect  De 
    179  .ARM.Collect$$libinit$$00000021
                                    0x0000092c   Lc    1  Sect  De 
    180  .ARM.Collect$$libinit$$00000023
                                    0x0000092c   Lc    1  Sect  De 
    181  .ARM.Collect$$libinit$$00000025
                                    0x0000092c   Lc    1  Sect  De 
    182  .ARM.Collect$$libinit$$0000002C
                                    0x0000092c   Lc    1  Sect  De 
    183  .ARM.Collect$$libinit$$0000002E
                                    0x0000092c   Lc    1  Sect  De 
    184  .ARM.Collect$$libinit$$00000030
                                    0x0000092c   Lc    1  Sect  De 
    185  .ARM.Collect$$libinit$$00000032
                                    0x0000092c   Lc    1  Sect  De 
    186  .ARM.Collect$$libinit$$00000033
                                    0x0000092c   Lc    1  Sect  De   0x2
    187  ../clib/libinit.s          0x00000000   Lc  Abs  File  De 
    188  ../clib/angel/sys.s        0x00000000   Lc  Abs  File  De 
    189  .text                      0x00000d46   Lc    1  Sect  De   0x2
    190  ../clib/angel/sys.s        0x00000000   Lc  Abs  File  De 
    191  .text                      0x00000d48   Lc    1  Sect  De 
    192  ../clib/angel/kernel.s     0x00000000   Lc  Abs  File  De 
    193  .ARM.Collect$$rtexit$$00000002
                                    0x0000094a   Lc    1  Sect  De 
    194  .ARM.Collect$$rtexit$$00000003
                                    0x0000094a   Lc    1  Sect  De   0x4
    195  .ARM.Collect$$rtexit$$00000004
                                    0x0000094e   Lc    1  Sect  De   0x6
    196  ../clib/armsys.c           0x00000000   Lc  Abs  File  De 
    197  ../clib/armsys.c           0x00000000   Lc  Abs  File  De 
    198  ../fplib/fpinit.s          0x00000000   Lc  Abs  File  De 
    199  x$fpl$fpinit               0x00002856   Lc    1  Sect  De   0x1a
    200  $v0                        0x00002856   Lc    1   --   De 
    201  ../clib/angel/sysapp.c     0x00000000   Lc  Abs  File  De 
    202  .text                      0x00000d48   Lc    1  Sect  De 
    203  ../clib/angel/sysapp.c     0x00000000   Lc  Abs  File  De 
    204  ../clib/angel/boardlib.s   0x00000000   Lc  Abs  File  De 
    205  ../clib/armsys.c           0x00000000   Lc  Abs  File  De 
    206  ../clib/armsys.c           0x00000000   Lc  Abs  File  De 
    207  ../clib/libinit.s          0x00000000   Lc  Abs  File  De 
    208  .ARM.Collect$$libshutdown$$00000000
                                    0x0000092e   Lc    1  Sect  De   0x2
    209  ../clib/angel/sysapp.c     0x00000000   Lc  Abs  File  De 
    210  ../clib/angel/sysapp.c     0x00000000   Lc  Abs  File  De 
    211  ../clib/heapalloc.c        0x00000000   Lc  Abs  File  De 
    212  ../clib/signal.c           0x00000000   Lc  Abs  File  De 
    213  ../clib/signal.c           0x00000000   Lc  Abs  File  De 
    214  ../clib/libinit.s          0x00000000   Lc  Abs  File  De 
    215  .ARM.Collect$$libshutdown$$00000002
                                    0x00000930   Lc    1  Sect  De 
    216  .ARM.Collect$$libshutdown$$00000004
                                    0x00000930   Lc    1  Sect  De 
    217  .ARM.Collect$$libshutdown$$00000007
                                    0x00000930   Lc    1  Sect  De 
    218  .ARM.Collect$$libshutdown$$0000000A
                                    0x00000930   Lc    1  Sect  De 
    219  .ARM.Collect$$libshutdown$$0000000C
                                    0x00000930   Lc    1  Sect  De 
    220  .ARM.Collect$$libshutdown$$0000000F
                                    0x00000930   Lc    1  Sect  De 
    221  .ARM.Collect$$libshutdown$$00000010
                                    0x00000930   Lc    1  Sect  De   0x2
    222  ../clib/angel/rt.s         0x00000000   Lc  Abs  File  De 
    223  ../clib/signal.c           0x00000000   Lc  Abs  File  De 
    224  ../clib/signal.c           0x00000000   Lc  Abs  File  De 
    225  ../clib/signal.c           0x00000000   Lc  Abs  File  De 
    226  ../clib/signal.c           0x00000000   Lc  Abs  File  De 
    227  ../clib/angel/sysapp.c     0x00000000   Lc  Abs  File  De 
    228  ../clib/angel/sysapp.c     0x00000000   Lc  Abs  File  De 
    229  ../clib/signal.s           0x00000000   Lc  Abs  File  De 
    230  ../clib/signal.c           0x00000000   Lc  Abs  File  De 
    231  ../clib/signal.c           0x00000000   Lc  Abs  File  De 
    232  ../clib/signal.c           0x00000000   Lc  Abs  File  De 
    233  ../clib/signal.c           0x00000000   Lc  Abs  File  De 
    234  ../clib/signal.c           0x00000000   Lc  Abs  File  De 
    235  ../clib/signal.c           0x00000000   Lc  Abs  File  De 
    236  ../clib/signal.c           0x00000000   Lc  Abs  File  De 
    237  ../clib/signal.c           0x00000000   Lc  Abs  File  De 
    238  ../clib/angel/scatter.s    0x00000000   Lc  Abs  File  De 
    239  !!!scatter                 0x000008a4   Lc    1  Sect  De   0x34
    240  ../clib/angel/handlers.s   0x00000000   Lc  Abs  File  De 
    241  !!handler_copy             0x000008d8   Lc    1  Sect  De   0x1a
    242  ../clib/angel/handlers.s   0x00000000   Lc  Abs  File  De 
    243  !!handler_zi               0x000008f4   Lc    1  Sect  De   0x1c
    244  BuildAttributes$$THM_ISAv4$E$P$D$K$B$S$7EM$8M$VFPi5$EXTD16$VFPS$VFMA$PE$A:L22UL41UL21$X:L11$S22US41US21$IEEE1$IW$~IW$USESV6$~STKCKD$USESV7$~SHL$OSPACE$ROPI$EBA8$UX$STANDARDLIB$REQ8$PRES8$EABIv2
                                    0x00000000   Gb  Abs   --   Hi 
    245  __Vectors                  0x00000000   Gb    1  Data  Hi   0x4
    246  __Vectors_End              0x0000089c   Gb    1  Data  Hi 
    247  __Vectors_Size             0x0000089c   Gb  Abs   --   Hi 
    248  __main                     0x0000089d   Gb    1  Code  Hi   0x8
    249  __scatterload              0x000008a5   Gb    1  Code  Hi 
    250  __scatterload_rt2          0x000008a5   Gb    1  Code  Hi   0x2c
    251  __scatterload_rt2_thumb_only
                                    0x000008a5   Gb    1  Code  Hi 
    252  __scatterload_null         0x000008b3   Gb    1  Code  Hi 
    253  __scatterload_copy         0x000008d9   Gb    1  Code  Hi   0x1a
    254  __scatterload_zeroinit     0x000008f5   Gb    1  Code  Hi   0x1c
    255  _printf_d                  0x00000911   Gb    1  Code  Hi 
    256  _printf_percent            0x00000911   Gb    1  Code  Hi 
    257  _printf_x                  0x00000917   Gb    1  Code  Hi 
    258  _printf_s                  0x0000091d   Gb    1  Code  Hi 
    259  _printf_percent_end        0x00000923   Gb    1  Code  De 
    260  __rt_lib_init              0x00000927   Gb    1  Code  De 
    261  __rt_lib_init_fp_1         0x00000929   Gb    1  Code  Hi 
    262  __rt_lib_init_alloca_1     0x0000092d   Gb    1  Code  Hi 
    263  __rt_lib_init_argv_1       0x0000092d   Gb    1  Code  Hi 
    264  __rt_lib_init_atexit_1     0x0000092d   Gb    1  Code  Hi 
    265  __rt_lib_init_clock_1      0x0000092d   Gb    1  Code  Hi 
    266  __rt_lib_init_cpp_1        0x0000092d   Gb    1  Code  Hi 
    267  __rt_lib_init_exceptions_1 0x0000092d   Gb    1  Code  Hi 
    268  __rt_lib_init_fp_trap_1    0x0000092d   Gb    1  Code  Hi 
    269  __rt_lib_init_getenv_1     0x0000092d   Gb    1  Code  Hi 
    270  __rt_lib_init_heap_1       0x0000092d   Gb    1  Code  Hi 
    271  __rt_lib_init_lc_collate_1 0x0000092d   Gb    1  Code  Hi 
    272  __rt_lib_init_lc_ctype_1   0x0000092d   Gb    1  Code  Hi 
    273  __rt_lib_init_lc_monetary_1
                                    0x0000092d   Gb    1  Code  Hi 
    274  __rt_lib_init_lc_numeric_1 0x0000092d   Gb    1  Code  Hi 
    275  __rt_lib_init_lc_time_1    0x0000092d   Gb    1  Code  Hi 
    276  __rt_lib_init_preinit_1    0x0000092d   Gb    1  Code  Hi 
    277  __rt_lib_init_rand_1       0x0000092d   Gb    1  Code  Hi 
    278  __rt_lib_init_return       0x0000092d   Gb    1  Code  Hi 
    279  __rt_lib_init_signal_1     0x0000092d   Gb    1  Code  Hi 
    280  __rt_lib_init_stdio_1      0x0000092d   Gb    1  Code  Hi 
    281  __rt_lib_init_user_alloc_1 0x0000092d   Gb    1  Code  Hi 
    282  __rt_lib_shutdown          0x0000092f   Gb    1  Code  De 
    283  __rt_lib_shutdown_cpp_1    0x00000931   Gb    1  Code  Hi 
    284  __rt_lib_shutdown_fp_trap_1
                                    0x00000931   Gb    1  Code  Hi 
    285  __rt_lib_shutdown_heap_1   0x00000931   Gb    1  Code  Hi 
    286  __rt_lib_shutdown_return   0x00000931   Gb    1  Code  Hi 
    287  __rt_lib_shutdown_signal_1 0x00000931   Gb    1  Code  Hi 
    288  __rt_lib_shutdown_stdio_1  0x00000931   Gb    1  Code  Hi 
    289  __rt_lib_shutdown_user_alloc_1
                                    0x00000931   Gb    1  Code  Hi 
    290  __rt_entry                 0x00000933   Gb    1  Code  Hi 
    291  __rt_entry_presh_1         0x00000933   Gb    1  Code  Hi 
    292  __rt_entry_sh              0x00000933   Gb    1  Code  Hi 
    293  __rt_entry_li              0x00000937   Gb    1  Code  Hi 
    294  __rt_entry_postsh_1        0x00000937   Gb    1  Code  Hi 
    295  __rt_entry_main            0x0000093b   Gb    1  Code  Hi 
    296  __rt_entry_postli_1        0x0000093b   Gb    1  Code  Hi 
    297  __rt_exit                  0x00000949   Gb    1  Code  De 
    298  __rt_exit_ls               0x0000094b   Gb    1  Code  Hi 
    299  __rt_exit_prels_1          0x0000094b   Gb    1  Code  Hi 
    300  __rt_exit_exit             0x0000094f   Gb    1  Code  Hi 
    301  Reset_Handler              0x00000955   Wk    1  Code  Hi   0xe
    302  HardFault_Handler          0x00000963   Wk    1  Code  Hi   0x2
    303  NMI_Handler                0x00000965   Wk    1  Code  Hi   0x2
    304  MemManage_Handler          0x00000967   Wk    1  Code  Hi   0x2
    305  BusFault_Handler           0x00000969   Wk    1  Code  Hi   0x2
    306  UsageFault_Handler         0x0000096b   Wk    1  Code  Hi   0x2
    307  SecureFault_Handler        0x0000096d   Wk    1  Code  Hi   0x2
    308  SVC_Handler                0x0000096f   Wk    1  Code  Hi   0x2
    309  DebugMon_Handler           0x00000971   Wk    1  Code  Hi   0x2
    310  PendSV_Handler             0x00000973   Wk    1  Code  Hi   0x2
    311  UART0_Handler              0x00000977   Wk    1  Code  Hi   0x2
    312  ADC_Handler                0x00000979   Wk    1  Code  Hi   0x2
    313  UART1_Handler              0x0000097b   Wk    1  Code  Hi   0x2
    314  DMACINTERR_Handler         0x0000097d   Wk    1  Code  Hi   0x2
    315  DMACINTTC_Handler          0x0000097f   Wk    1  Code  Hi   0x2
    316  DMACINTR_Handler           0x00000981   Wk    1  Code  Hi   0x2
    317  PORT0_COMB_Handler         0x00000983   Wk    1  Code  Hi   0x2
    318  ADC1_Handler               0x00000985   Wk    1  Code  Hi   0x2
    319  TIMER0_Handler             0x00000987   Wk    1  Code  Hi   0x2
    320  TIMER1_Handler             0x00000989   Wk    1  Code  Hi   0x2
    321  DUALTIMER0_Handler         0x0000098b   Wk    1  Code  Hi   0x2
    322  DUALTIMER1_Handler         0x0000098d   Wk    1  Code  Hi   0x2
    323  UARTOVF_Handler            0x0000098f   Wk    1  Code  Hi   0x2
    324  EXT13_IRQn                 0x00000991   Wk    1  Code  Hi   0x2
    325  EXT14_IRQn                 0x00000993   Wk    1  Code  Hi   0x2
    326  EXT15_IRQn                 0x00000995   Wk    1  Code  Hi   0x2
    327  PORT0_0_Handler            0x00000997   Wk    1  Code  Hi   0x2
    328  PORT0_1_Handler            0x00000999   Wk    1  Code  Hi   0x2
    329  PORT0_2_Handler            0x0000099b   Wk    1  Code  Hi   0x2
    330  PORT0_3_Handler            0x0000099d   Wk    1  Code  Hi   0x2
    331  PORT0_4_Handler            0x0000099f   Wk    1  Code  Hi   0x2
    332  PORT0_5_Handler            0x000009a1   Wk    1  Code  Hi   0x2
    333  PORT0_6_Handler            0x000009a3   Wk    1  Code  Hi   0x2
    334  PORT0_7_Handler            0x000009a5   Wk    1  Code  Hi   0x2
    335  PORT0_8_Handler            0x000009a7   Wk    1  Code  Hi   0x2
    336  PORT0_9_Handler            0x000009a9   Wk    1  Code  Hi   0x2
    337  PORT0_10_Handler           0x000009ab   Wk    1  Code  Hi   0x2
    338  PORT0_11_Handler           0x000009ad   Wk    1  Code  Hi   0x2
    339  PORT0_12_Handler           0x000009af   Wk    1  Code  Hi   0x2
    340  PORT0_13_Handler           0x000009b1   Wk    1  Code  Hi   0x2
    341  PORT0_14_Handler           0x000009b3   Wk    1  Code  Hi   0x2
    342  PORT0_15_Handler           0x000009b5   Wk    1  Code  Hi   0x2
    343  PORT0_16_Handler           0x000009b7   Wk    1  Code  Hi   0x2
    344  PORT0_17_Handler           0x000009b9   Wk    1  Code  Hi   0x2
    345  PORT0_18_Handler           0x000009bb   Wk    1  Code  Hi   0x2
    346  PORT0_19_Handler           0x000009bd   Wk    1  Code  Hi   0x2
    347  PORT0_20_Handler           0x000009bf   Wk    1  Code  Hi   0x2
    348  PORT0_21_Handler           0x000009c1   Wk    1  Code  Hi   0x2
    349  PORT0_22_Handler           0x000009c3   Wk    1  Code  Hi   0x2
    350  PORT0_23_Handler           0x000009c5   Wk    1  Code  Hi   0x2
    351  PORT0_24_Handler           0x000009c7   Wk    1  Code  Hi   0x2
    352  PORT0_25_Handler           0x000009c9   Wk    1  Code  Hi   0x2
    353  PORT0_26_Handler           0x000009cb   Wk    1  Code  Hi   0x2
    354  PORT0_27_Handler           0x000009cd   Wk    1  Code  Hi   0x2
    355  PORT0_28_Handler           0x000009cf   Wk    1  Code  Hi   0x2
    356  PORT0_29_Handler           0x000009d1   Wk    1  Code  Hi   0x2
    357  PORT0_30_Handler           0x000009d3   Wk    1  Code  Hi   0x2
    358  PORT0_31_Handler           0x000009d5   Wk    1  Code  Hi   0x2
    359  I2C_Handler                0x000009d7   Wk    1  Code  Hi   0x2
    360  MPS2_SSP0_Handler          0x000009d9   Wk    1  Code  Hi   0x2
    361  MPS2_SSP1_Handler          0x000009db   Wk    1  Code  Hi   0x2
    362  Spare51_Handler            0x000009dd   Wk    1  Code  Hi   0x2
    363  Spare52_Handler            0x000009df   Wk    1  Code  Hi   0x2
    364  Spare53_Handler            0x000009e1   Wk    1  Code  Hi   0x2
    365  Spare54_Handler            0x000009e3   Wk    1  Code  Hi   0x2
    366  Spare55_Handler            0x000009e5   Wk    1  Code  Hi   0x2
    367  Spare56_Handler            0x000009e7   Wk    1  Code  Hi   0x2
    368  Spare57_Handler            0x000009e9   Wk    1  Code  Hi   0x2
    369  Spare58_Handler            0x000009eb   Wk    1  Code  Hi   0x2
    370  Spare59_Handler            0x000009ed   Wk    1  Code  Hi   0x2
    371  Spare60_Handler            0x000009ef   Wk    1  Code  Hi   0x2
    372  Spare61_Handler            0x000009f1   Wk    1  Code  Hi   0x2
    373  Spare62_Handler            0x000009f3   Wk    1  Code  Hi   0x2
    374  Spare63_Handler            0x000009f5   Wk    1  Code  Hi   0x2
    375  EXT0_Handler               0x000009f7   Wk    1  Code  Hi   0x2
    376  EXT1_Handler               0x000009f9   Wk    1  Code  Hi   0x2
    377  EXT2_Handler               0x000009fb   Wk    1  Code  Hi   0x2
    378  EXT3_Handler               0x000009fd   Wk    1  Code  Hi   0x2
    379  EXT4_Handler               0x000009ff   Wk    1  Code  Hi   0x2
    380  EXT5_Handler               0x00000a01   Wk    1  Code  Hi   0x2
    381  EXT6_Handler               0x00000a03   Wk    1  Code  Hi   0x2
    382  EXT7_Handler               0x00000a05   Wk    1  Code  Hi   0x2
    383  EXT8_Handler               0x00000a07   Wk    1  Code  Hi   0x2
    384  EXT9_Handler               0x00000a09   Wk    1  Code  Hi   0x2
    385  EXT10_Handler              0x00000a0b   Wk    1  Code  Hi   0x2
    386  EXT11_Handler              0x00000a0d   Wk    1  Code  Hi   0x2
    387  EXT12_Handler              0x00000a0f   Wk    1  Code  Hi   0x2
    388  EXT13_Handler              0x00000a11   Wk    1  Code  Hi   0x2
    389  EXT14_Handler              0x00000a13   Wk    1  Code  Hi   0x2
    390  EXT15_Handler              0x00000a15   Wk    1  Code  Hi   0x2
    391  UART2_Handler              0x00000a17   Wk    1  Code  Hi   0x2
    392  __2printf                  0x00000a25   Gb    1  Code  De   0x14
    393  __printf                   0x00000a3d   Gb    1  Code  De   0x68
    394  _printf_str                0x00000aa5   Gb    1  Code  Hi   0x52
    395  _printf_int_dec            0x00000af9   Gb    1  Code  Hi   0x68
    396  _printf_int_hex            0x00000b71   Gb    1  Code  De   0x54
    397  _printf_longlong_hex       0x00000b71   Gb    1  Code  Hi 
    398  puts                       0x00000bc9   Gb    1  Code  De   0x28
    399  __use_two_region_memory    0x00000bf5   Gb    1  Code  Hi   0x2
    400  __rt_heap_escrow$2region   0x00000bf7   Gb    1  Code  De   0x2
    401  __rt_heap_expand$2region   0x00000bf9   Gb    1  Code  De   0x2
    402  _printf_int_common         0x00000bfb   Gb    1  Code  De   0xb2
    403  _printf_cs_common          0x00000cad   Gb    1  Code  Hi   0x14
    404  _printf_char               0x00000cc1   Gb    1  Code  De   0x10
    405  _printf_string             0x00000cd1   Gb    1  Code  De   0x8
    406  _printf_char_file          0x00000cd9   Gb    1  Code  De   0x20
    407  _printf_char_common        0x00000d07   Gb    1  Code  De   0x20
    408  ferror                     0x00000d2d   Gb    1  Code  De   0x8
    409  exit                       0x00000d35   Gb    1  Code  De   0x12
    410  __I$use$semihosting        0x00000d47   Gb    1  Code  Hi 
    411  __use_no_semihosting_swi   0x00000d47   Gb    1  Code  Hi   0x2
    412  __semihosting_library_function
                                    0x00000d49   Gb    1  Code  Hi 
    413  _sys_exit                  0x00000d49   Gb    1  Code  De   0x8
    414  GPIO_DeInit                0x00000d55   Gb    1  Code  Hi   0x22
    415  GPIO_OutModeDisable        0x00000d77   Gb    1  Code  Hi   0xa
    416  GPIO_PinRemapConfig        0x00000d81   Gb    1  Code  Hi   0xa
    417  GPIO_ResetBit              0x00000d8b   Gb    1  Code  Hi   0x18
    418  GPIO_SetBit                0x00000da3   Gb    1  Code  Hi   0x16
    419  GT911_Scan                 0x00000db9   Gb    1  Code  Hi   0x108
    420  GT911_init                 0x00000ef1   Gb    1  Code  Hi   0x84
    421  GT9XX_ReadData             0x00000fc5   Gb    1  Code  Hi   0xd8
    422  GT9XX_WriteData            0x0000109d   Gb    1  Code  Hi   0x84
    423  LCD_DrawLine               0x00001121   Gb    1  Code  Hi   0xec
    424  LCD_DrawPoint_color        0x0000120d   Gb    1  Code  Hi   0x4a
    425  LCD_Draw_Circle            0x00001259   Gb    1  Code  Hi   0x282
    426  LCD_Init                   0x000014dd   Gb    1  Code  Hi   0x1c8
    427  RCC_APB1PeriphResetCmd     0x000016b5   Gb    1  Code  Hi   0x18
    428  SCD_Rev1Byte               0x000018cd   Gb    1  Code  Hi   0x188
    429  SysTick_Handler            0x00001f21   Gb    1  Code  Hi   0x10
    430  SystemInit                 0x00001f31   Gb    1  Code  Hi   0x32
    431  UART_DeInit                0x00001f63   Gb    1  Code  Hi   0x42
    432  UART_Init                  0x00001fa5   Gb    1  Code  Hi   0x18
    433  delay_ms                   0x000020b9   Gb    1  Code  Hi   0x1a
    434  fputc                      0x000020d5   Gb    1  Code  Hi   0x14
    435  main                       0x000020e9   Gb    1  Code  Hi   0x1da
    436  read_i2c                   0x000022c5   Gb    1  Code  Hi   0x14e
    437  scd_init_1                 0x00002413   Gb    1  Code  Hi   0x9c
    438  scd_send1Byte              0x000024af   Gb    1  Code  Hi   0x40
    439  start_i2c                  0x000024f1   Gb    1  Code  Hi   0x112
    440  stop_i2c                   0x00002605   Gb    1  Code  Hi   0xb6
    441  swi2c_init                 0x000026bb   Gb    1  Code  Hi   0x56
    442  write_i2c                  0x00002711   Gb    1  Code  Hi   0x146
    443  _fp_init                   0x00002857   Gb    1  Code  De   0x1a
    444  __fplib_config_fpu_vfp     0x0000286f   Gb    1  Code  De 
    445  __fplib_config_pureend_doubles
                                    0x0000286f   Gb    1  Code  De 
    446  cz_ctype                   0x000028ac   Gb    1  Data  Hi   0x400
    447  tyj_unit_struct_1          0x00002cd0   Gb    1  Data  Hi   0x48
    448  Region$$Table$$Base        0x00002d18   Gb    1   --   Hi 
    449  Region$$Table$$Limit       0x00002d38   Gb    1   --   Hi 
    450  POINT_COLOR                0x20000000   Gb    2  Data  Hi   0x4
    451  SystemCoreClock            0x20000004   Gb    2  Data  Hi   0x4
    452  endBuff1_1                 0x20000008   Gb    2  Data  Hi   0x4
    453  endBuff2_1                 0x2000000c   Gb    2  Data  Hi   0x8
    454  endBuff3_1                 0x20000014   Gb    2  Data  Hi   0x4
    455  __stdout                   0x2000001c   Gb    3  Data  Hi   0x54
    456  millisCnt                  0x20000070   Gb    3  Data  Hi   0x4
    457  printBuff_1                0x20000074   Gb    3  Data  Hi   0x28
    458  recBuff_1                  0x2000009c   Gb    3  Data  Hi   0x50
    459  scd_1                      0x200000ec   Gb    3  Data  Hi   0x68
    460  test1                      0x20000154   Gb    3  Data  Hi   0x2
    461  test1r                     0x20000156   Gb    3  Data  Hi   0x2
    462  test2                      0x20000158   Gb    3  Data  Hi   0x2
    463  test2r                     0x2000015a   Gb    3  Data  Hi   0x2
    464  test3                      0x2000015c   Gb    3  Data  Hi   0x2
    465  test3r                     0x2000015e   Gb    3  Data  Hi   0x2
    466  test4                      0x20000160   Gb    3  Data  Hi   0x2
    467  test4r                     0x20000162   Gb    3  Data  Hi   0x2
    468  __stack_limit              0x20000190   Gb    3  Data  Hi 
    469  __initial_sp               0x20001190   Gb    3  Data  Hi 


** Section #12 '.strtab' (SHT_STRTAB)
    Size   : 6464 bytes


** Section #13 '.note' (SHT_NOTE)
    Size   : 28 bytes (alignment 4)


** Section #14 '.comment' (SHT_PROGBITS)
    Size   : 1360 bytes


** Section #15 '.shstrtab' (SHT_STRTAB)
    Size   : 148 bytes


